ARM GAS  /var/folders/4j/h0s8jllx34d4kvb_9k9v0kmh0000gn/T//cctne3Ma.s 			page 1


   1              		.cpu cortex-m3
   2              		.arch armv7-m
   3              		.fpu softvfp
   4              		.eabi_attribute 20, 1
   5              		.eabi_attribute 21, 1
   6              		.eabi_attribute 23, 3
   7              		.eabi_attribute 24, 1
   8              		.eabi_attribute 25, 1
   9              		.eabi_attribute 26, 1
  10              		.eabi_attribute 30, 1
  11              		.eabi_attribute 34, 1
  12              		.eabi_attribute 18, 4
  13              		.file	"main.c"
  14              		.text
  15              	.Ltext0:
  16              		.cfi_sections	.debug_frame
  17              		.section	.text.MX_GPIO_Init,"ax",%progbits
  18              		.align	1
  19              		.syntax unified
  20              		.thumb
  21              		.thumb_func
  23              	MX_GPIO_Init:
  24              	.LFB69:
  25              		.file 1 "Core/Src/main.c"
   1:Core/Src/main.c **** /* USER CODE BEGIN Header */
   2:Core/Src/main.c **** /**
   3:Core/Src/main.c ****   ******************************************************************************
   4:Core/Src/main.c ****   * @file           : main.c
   5:Core/Src/main.c ****   * @brief          : Main program body
   6:Core/Src/main.c ****   ******************************************************************************
   7:Core/Src/main.c ****   * @attention
   8:Core/Src/main.c ****   *
   9:Core/Src/main.c ****   * Copyright (c) 2022 STMicroelectronics.
  10:Core/Src/main.c ****   * All rights reserved.
  11:Core/Src/main.c ****   *
  12:Core/Src/main.c ****   * This software is licensed under terms that can be found in the LICENSE file
  13:Core/Src/main.c ****   * in the root directory of this software component.
  14:Core/Src/main.c ****   * If no LICENSE file comes with this software, it is provided AS-IS.
  15:Core/Src/main.c ****   *
  16:Core/Src/main.c ****   ******************************************************************************
  17:Core/Src/main.c ****   */
  18:Core/Src/main.c **** /* USER CODE END Header */
  19:Core/Src/main.c **** /* Includes ------------------------------------------------------------------*/
  20:Core/Src/main.c **** #include "main.h"
  21:Core/Src/main.c **** 
  22:Core/Src/main.c **** /* Private includes ----------------------------------------------------------*/
  23:Core/Src/main.c **** /* USER CODE BEGIN Includes */
  24:Core/Src/main.c **** 
  25:Core/Src/main.c **** /* USER CODE END Includes */
  26:Core/Src/main.c **** 
  27:Core/Src/main.c **** /* Private typedef -----------------------------------------------------------*/
  28:Core/Src/main.c **** /* USER CODE BEGIN PTD */
  29:Core/Src/main.c **** 
  30:Core/Src/main.c **** /* USER CODE END PTD */
  31:Core/Src/main.c **** 
  32:Core/Src/main.c **** /* Private define ------------------------------------------------------------*/
  33:Core/Src/main.c **** /* USER CODE BEGIN PD */
ARM GAS  /var/folders/4j/h0s8jllx34d4kvb_9k9v0kmh0000gn/T//cctne3Ma.s 			page 2


  34:Core/Src/main.c **** /* USER CODE END PD */
  35:Core/Src/main.c **** 
  36:Core/Src/main.c **** /* Private macro -------------------------------------------------------------*/
  37:Core/Src/main.c **** /* USER CODE BEGIN PM */
  38:Core/Src/main.c **** 
  39:Core/Src/main.c **** /* USER CODE END PM */
  40:Core/Src/main.c **** 
  41:Core/Src/main.c **** /* Private variables ---------------------------------------------------------*/
  42:Core/Src/main.c **** TIM_HandleTypeDef htim1;
  43:Core/Src/main.c **** 
  44:Core/Src/main.c **** UART_HandleTypeDef huart2;
  45:Core/Src/main.c **** 
  46:Core/Src/main.c **** /* USER CODE BEGIN PV */
  47:Core/Src/main.c **** #define SMB_0 0b00000011
  48:Core/Src/main.c **** #define SMB_1 0b10011111
  49:Core/Src/main.c **** #define SMB_2 0b00100101
  50:Core/Src/main.c **** #define SMB_3 0b00001101
  51:Core/Src/main.c **** #define SMB_4 0b10011001
  52:Core/Src/main.c **** #define SMB_5 0b01001001
  53:Core/Src/main.c **** #define SMB_6 0b01000001
  54:Core/Src/main.c **** #define SMB_7 0b00011111
  55:Core/Src/main.c **** #define SMB_8 0b00000001
  56:Core/Src/main.c **** #define SMB_9 0b00001001
  57:Core/Src/main.c **** #define SMB_DASH 0b00000011
  58:Core/Src/main.c **** #define SMB_NONE 0b11111111
  59:Core/Src/main.c **** 
  60:Core/Src/main.c **** #define DIG_1 0b10001111
  61:Core/Src/main.c **** #define DIG_2 0b01001111
  62:Core/Src/main.c **** #define DIG_3 0b00100000
  63:Core/Src/main.c **** #define DIG_4 0b00010000
  64:Core/Src/main.c **** const uint8_t NUMBERS[] = {
  65:Core/Src/main.c ****         SMB_0,
  66:Core/Src/main.c ****         SMB_1,
  67:Core/Src/main.c ****         SMB_2,
  68:Core/Src/main.c ****         SMB_3,
  69:Core/Src/main.c ****         SMB_4,
  70:Core/Src/main.c ****         SMB_5,
  71:Core/Src/main.c ****         SMB_6,
  72:Core/Src/main.c ****         SMB_7,
  73:Core/Src/main.c ****         SMB_8,
  74:Core/Src/main.c ****         SMB_9};
  75:Core/Src/main.c **** 
  76:Core/Src/main.c **** const uint8_t SEGMENTS[] = {DIG_1, DIG_2, DIG_3, DIG_4};
  77:Core/Src/main.c **** 
  78:Core/Src/main.c **** uint8_t NUMBER[15] = {0, 0, 0, 0, 0, 0, 0, 0, 0, 0, 0, 0, 0, 0, 0};
  79:Core/Src/main.c **** int8_t numberSize = 10;
  80:Core/Src/main.c **** 
  81:Core/Src/main.c **** uint8_t isNumberSizeChoice = 0;
  82:Core/Src/main.c **** 
  83:Core/Src/main.c **** uint8_t isGenerating = 0;
  84:Core/Src/main.c **** 
  85:Core/Src/main.c **** uint16_t drawingDelay = 300;
  86:Core/Src/main.c **** 
  87:Core/Src/main.c **** int8_t currPos = -4;
  88:Core/Src/main.c **** /* USER CODE END PV */
  89:Core/Src/main.c **** 
  90:Core/Src/main.c **** /* Private function prototypes -----------------------------------------------*/
ARM GAS  /var/folders/4j/h0s8jllx34d4kvb_9k9v0kmh0000gn/T//cctne3Ma.s 			page 3


  91:Core/Src/main.c **** void SystemClock_Config(void);
  92:Core/Src/main.c **** static void MX_GPIO_Init(void);
  93:Core/Src/main.c **** static void MX_USART2_UART_Init(void);
  94:Core/Src/main.c **** static void MX_TIM1_Init(void);
  95:Core/Src/main.c **** /* USER CODE BEGIN PFP */
  96:Core/Src/main.c **** uint8_t nextRandom();
  97:Core/Src/main.c **** 
  98:Core/Src/main.c **** void writeNumberToDisplay(uint8_t number, uint8_t segment);
  99:Core/Src/main.c **** 
 100:Core/Src/main.c **** void writeByteToRegister(uint8_t number);
 101:Core/Src/main.c **** 
 102:Core/Src/main.c **** void generateNewNumber();
 103:Core/Src/main.c **** 
 104:Core/Src/main.c **** void animateLeds();
 105:Core/Src/main.c **** 
 106:Core/Src/main.c **** void drawNumbers(int8_t begin);
 107:Core/Src/main.c **** 
 108:Core/Src/main.c **** void drawNumber(uint8_t number);
 109:Core/Src/main.c **** 
 110:Core/Src/main.c **** void drawClearDisplay();
 111:Core/Src/main.c **** 
 112:Core/Src/main.c **** uint8_t debounceButton();
 113:Core/Src/main.c **** /* USER CODE END PFP */
 114:Core/Src/main.c **** 
 115:Core/Src/main.c **** /* Private user code ---------------------------------------------------------*/
 116:Core/Src/main.c **** /* USER CODE BEGIN 0 */
 117:Core/Src/main.c **** 
 118:Core/Src/main.c **** /* USER CODE END 0 */
 119:Core/Src/main.c **** 
 120:Core/Src/main.c **** /**
 121:Core/Src/main.c ****   * @brief  The application entry point.
 122:Core/Src/main.c ****   * @retval int
 123:Core/Src/main.c ****   */
 124:Core/Src/main.c **** int main(void)
 125:Core/Src/main.c **** {
 126:Core/Src/main.c ****   /* USER CODE BEGIN 1 */
 127:Core/Src/main.c **** 
 128:Core/Src/main.c ****   /* USER CODE END 1 */
 129:Core/Src/main.c **** 
 130:Core/Src/main.c ****   /* MCU Configuration--------------------------------------------------------*/
 131:Core/Src/main.c **** 
 132:Core/Src/main.c ****   /* Reset of all peripherals, Initializes the Flash interface and the Systick. */
 133:Core/Src/main.c ****   HAL_Init();
 134:Core/Src/main.c **** 
 135:Core/Src/main.c ****   /* USER CODE BEGIN Init */
 136:Core/Src/main.c **** 
 137:Core/Src/main.c ****   /* USER CODE END Init */
 138:Core/Src/main.c **** 
 139:Core/Src/main.c ****   /* Configure the system clock */
 140:Core/Src/main.c ****   SystemClock_Config();
 141:Core/Src/main.c **** 
 142:Core/Src/main.c ****   /* USER CODE BEGIN SysInit */
 143:Core/Src/main.c **** 
 144:Core/Src/main.c ****   /* USER CODE END SysInit */
 145:Core/Src/main.c **** 
 146:Core/Src/main.c ****   /* Initialize all configured peripherals */
 147:Core/Src/main.c ****   MX_GPIO_Init();
ARM GAS  /var/folders/4j/h0s8jllx34d4kvb_9k9v0kmh0000gn/T//cctne3Ma.s 			page 4


 148:Core/Src/main.c ****   MX_USART2_UART_Init();
 149:Core/Src/main.c ****   MX_TIM1_Init();
 150:Core/Src/main.c ****   /* USER CODE BEGIN 2 */
 151:Core/Src/main.c **** 
 152:Core/Src/main.c ****   /* USER CODE END 2 */
 153:Core/Src/main.c **** 
 154:Core/Src/main.c ****   /* Infinite loop */
 155:Core/Src/main.c ****   /* USER CODE BEGIN WHILE */
 156:Core/Src/main.c **** 
 157:Core/Src/main.c ****   generateNewNumber();
 158:Core/Src/main.c ****   uint32_t lastChange = HAL_GetTick();
 159:Core/Src/main.c ****   while (1)
 160:Core/Src/main.c ****   {
 161:Core/Src/main.c ****     /* USER CODE END WHILE */
 162:Core/Src/main.c **** 
 163:Core/Src/main.c ****     /* USER CODE BEGIN 3 */
 164:Core/Src/main.c ****     animateLeds();
 165:Core/Src/main.c **** 
 166:Core/Src/main.c ****     if (isGenerating == 0)
 167:Core/Src/main.c ****     {
 168:Core/Src/main.c ****       if (isNumberSizeChoice)
 169:Core/Src/main.c ****       {
 170:Core/Src/main.c ****         drawNumber(numberSize);
 171:Core/Src/main.c ****       } else
 172:Core/Src/main.c ****       {
 173:Core/Src/main.c ****         drawNumbers(currPos);
 174:Core/Src/main.c ****         if (HAL_GetTick() - lastChange > drawingDelay)
 175:Core/Src/main.c ****         {
 176:Core/Src/main.c ****           currPos++;
 177:Core/Src/main.c ****           if (currPos > numberSize) currPos = -4;
 178:Core/Src/main.c ****           lastChange = HAL_GetTick();
 179:Core/Src/main.c ****         }
 180:Core/Src/main.c ****       }
 181:Core/Src/main.c ****     }
 182:Core/Src/main.c ****   }
 183:Core/Src/main.c ****   /* USER CODE END 3 */
 184:Core/Src/main.c **** }
 185:Core/Src/main.c **** 
 186:Core/Src/main.c **** /**
 187:Core/Src/main.c ****   * @brief System Clock Configuration
 188:Core/Src/main.c ****   * @retval None
 189:Core/Src/main.c ****   */
 190:Core/Src/main.c **** void SystemClock_Config(void)
 191:Core/Src/main.c **** {
 192:Core/Src/main.c ****   RCC_OscInitTypeDef RCC_OscInitStruct = {0};
 193:Core/Src/main.c ****   RCC_ClkInitTypeDef RCC_ClkInitStruct = {0};
 194:Core/Src/main.c **** 
 195:Core/Src/main.c ****   /** Initializes the RCC Oscillators according to the specified parameters
 196:Core/Src/main.c ****   * in the RCC_OscInitTypeDef structure.
 197:Core/Src/main.c ****   */
 198:Core/Src/main.c ****   RCC_OscInitStruct.OscillatorType = RCC_OSCILLATORTYPE_HSI;
 199:Core/Src/main.c ****   RCC_OscInitStruct.HSIState = RCC_HSI_ON;
 200:Core/Src/main.c ****   RCC_OscInitStruct.HSICalibrationValue = RCC_HSICALIBRATION_DEFAULT;
 201:Core/Src/main.c ****   RCC_OscInitStruct.PLL.PLLState = RCC_PLL_ON;
 202:Core/Src/main.c ****   RCC_OscInitStruct.PLL.PLLSource = RCC_PLLSOURCE_HSI_DIV2;
 203:Core/Src/main.c ****   RCC_OscInitStruct.PLL.PLLMUL = RCC_PLL_MUL16;
 204:Core/Src/main.c ****   if (HAL_RCC_OscConfig(&RCC_OscInitStruct) != HAL_OK)
ARM GAS  /var/folders/4j/h0s8jllx34d4kvb_9k9v0kmh0000gn/T//cctne3Ma.s 			page 5


 205:Core/Src/main.c ****   {
 206:Core/Src/main.c ****     Error_Handler();
 207:Core/Src/main.c ****   }
 208:Core/Src/main.c **** 
 209:Core/Src/main.c ****   /** Initializes the CPU, AHB and APB buses clocks
 210:Core/Src/main.c ****   */
 211:Core/Src/main.c ****   RCC_ClkInitStruct.ClockType = RCC_CLOCKTYPE_HCLK|RCC_CLOCKTYPE_SYSCLK
 212:Core/Src/main.c ****                               |RCC_CLOCKTYPE_PCLK1|RCC_CLOCKTYPE_PCLK2;
 213:Core/Src/main.c ****   RCC_ClkInitStruct.SYSCLKSource = RCC_SYSCLKSOURCE_PLLCLK;
 214:Core/Src/main.c ****   RCC_ClkInitStruct.AHBCLKDivider = RCC_SYSCLK_DIV1;
 215:Core/Src/main.c ****   RCC_ClkInitStruct.APB1CLKDivider = RCC_HCLK_DIV2;
 216:Core/Src/main.c ****   RCC_ClkInitStruct.APB2CLKDivider = RCC_HCLK_DIV1;
 217:Core/Src/main.c **** 
 218:Core/Src/main.c ****   if (HAL_RCC_ClockConfig(&RCC_ClkInitStruct, FLASH_LATENCY_2) != HAL_OK)
 219:Core/Src/main.c ****   {
 220:Core/Src/main.c ****     Error_Handler();
 221:Core/Src/main.c ****   }
 222:Core/Src/main.c **** }
 223:Core/Src/main.c **** 
 224:Core/Src/main.c **** /**
 225:Core/Src/main.c ****   * @brief TIM1 Initialization Function
 226:Core/Src/main.c ****   * @param None
 227:Core/Src/main.c ****   * @retval None
 228:Core/Src/main.c ****   */
 229:Core/Src/main.c **** static void MX_TIM1_Init(void)
 230:Core/Src/main.c **** {
 231:Core/Src/main.c **** 
 232:Core/Src/main.c ****   /* USER CODE BEGIN TIM1_Init 0 */
 233:Core/Src/main.c **** 
 234:Core/Src/main.c ****   /* USER CODE END TIM1_Init 0 */
 235:Core/Src/main.c **** 
 236:Core/Src/main.c ****   TIM_ClockConfigTypeDef sClockSourceConfig = {0};
 237:Core/Src/main.c ****   TIM_SlaveConfigTypeDef sSlaveConfig = {0};
 238:Core/Src/main.c ****   TIM_MasterConfigTypeDef sMasterConfig = {0};
 239:Core/Src/main.c **** 
 240:Core/Src/main.c ****   /* USER CODE BEGIN TIM1_Init 1 */
 241:Core/Src/main.c **** 
 242:Core/Src/main.c ****   /* USER CODE END TIM1_Init 1 */
 243:Core/Src/main.c ****   htim1.Instance = TIM1;
 244:Core/Src/main.c ****   htim1.Init.Prescaler = 0;
 245:Core/Src/main.c ****   htim1.Init.CounterMode = TIM_COUNTERMODE_UP;
 246:Core/Src/main.c ****   htim1.Init.Period = 65535;
 247:Core/Src/main.c ****   htim1.Init.ClockDivision = TIM_CLOCKDIVISION_DIV1;
 248:Core/Src/main.c ****   htim1.Init.RepetitionCounter = 0;
 249:Core/Src/main.c ****   htim1.Init.AutoReloadPreload = TIM_AUTORELOAD_PRELOAD_DISABLE;
 250:Core/Src/main.c ****   if (HAL_TIM_Base_Init(&htim1) != HAL_OK)
 251:Core/Src/main.c ****   {
 252:Core/Src/main.c ****     Error_Handler();
 253:Core/Src/main.c ****   }
 254:Core/Src/main.c ****   sClockSourceConfig.ClockSource = TIM_CLOCKSOURCE_INTERNAL;
 255:Core/Src/main.c ****   if (HAL_TIM_ConfigClockSource(&htim1, &sClockSourceConfig) != HAL_OK)
 256:Core/Src/main.c ****   {
 257:Core/Src/main.c ****     Error_Handler();
 258:Core/Src/main.c ****   }
 259:Core/Src/main.c ****   sSlaveConfig.SlaveMode = TIM_SLAVEMODE_DISABLE;
 260:Core/Src/main.c ****   sSlaveConfig.InputTrigger = TIM_TS_ITR0;
 261:Core/Src/main.c ****   if (HAL_TIM_SlaveConfigSynchro(&htim1, &sSlaveConfig) != HAL_OK)
ARM GAS  /var/folders/4j/h0s8jllx34d4kvb_9k9v0kmh0000gn/T//cctne3Ma.s 			page 6


 262:Core/Src/main.c ****   {
 263:Core/Src/main.c ****     Error_Handler();
 264:Core/Src/main.c ****   }
 265:Core/Src/main.c ****   sMasterConfig.MasterOutputTrigger = TIM_TRGO_RESET;
 266:Core/Src/main.c ****   sMasterConfig.MasterSlaveMode = TIM_MASTERSLAVEMODE_DISABLE;
 267:Core/Src/main.c ****   if (HAL_TIMEx_MasterConfigSynchronization(&htim1, &sMasterConfig) != HAL_OK)
 268:Core/Src/main.c ****   {
 269:Core/Src/main.c ****     Error_Handler();
 270:Core/Src/main.c ****   }
 271:Core/Src/main.c ****   /* USER CODE BEGIN TIM1_Init 2 */
 272:Core/Src/main.c **** 
 273:Core/Src/main.c ****   /* USER CODE END TIM1_Init 2 */
 274:Core/Src/main.c **** 
 275:Core/Src/main.c **** }
 276:Core/Src/main.c **** 
 277:Core/Src/main.c **** /**
 278:Core/Src/main.c ****   * @brief USART2 Initialization Function
 279:Core/Src/main.c ****   * @param None
 280:Core/Src/main.c ****   * @retval None
 281:Core/Src/main.c ****   */
 282:Core/Src/main.c **** static void MX_USART2_UART_Init(void)
 283:Core/Src/main.c **** {
 284:Core/Src/main.c **** 
 285:Core/Src/main.c ****   /* USER CODE BEGIN USART2_Init 0 */
 286:Core/Src/main.c **** 
 287:Core/Src/main.c ****   /* USER CODE END USART2_Init 0 */
 288:Core/Src/main.c **** 
 289:Core/Src/main.c ****   /* USER CODE BEGIN USART2_Init 1 */
 290:Core/Src/main.c **** 
 291:Core/Src/main.c ****   /* USER CODE END USART2_Init 1 */
 292:Core/Src/main.c ****   huart2.Instance = USART2;
 293:Core/Src/main.c ****   huart2.Init.BaudRate = 115200;
 294:Core/Src/main.c ****   huart2.Init.WordLength = UART_WORDLENGTH_8B;
 295:Core/Src/main.c ****   huart2.Init.StopBits = UART_STOPBITS_1;
 296:Core/Src/main.c ****   huart2.Init.Parity = UART_PARITY_NONE;
 297:Core/Src/main.c ****   huart2.Init.Mode = UART_MODE_TX_RX;
 298:Core/Src/main.c ****   huart2.Init.HwFlowCtl = UART_HWCONTROL_NONE;
 299:Core/Src/main.c ****   huart2.Init.OverSampling = UART_OVERSAMPLING_16;
 300:Core/Src/main.c ****   if (HAL_UART_Init(&huart2) != HAL_OK)
 301:Core/Src/main.c ****   {
 302:Core/Src/main.c ****     Error_Handler();
 303:Core/Src/main.c ****   }
 304:Core/Src/main.c ****   /* USER CODE BEGIN USART2_Init 2 */
 305:Core/Src/main.c **** 
 306:Core/Src/main.c ****   /* USER CODE END USART2_Init 2 */
 307:Core/Src/main.c **** 
 308:Core/Src/main.c **** }
 309:Core/Src/main.c **** 
 310:Core/Src/main.c **** /**
 311:Core/Src/main.c ****   * @brief GPIO Initialization Function
 312:Core/Src/main.c ****   * @param None
 313:Core/Src/main.c ****   * @retval None
 314:Core/Src/main.c ****   */
 315:Core/Src/main.c **** static void MX_GPIO_Init(void)
 316:Core/Src/main.c **** {
  26              		.loc 1 316 1 view -0
  27              		.cfi_startproc
ARM GAS  /var/folders/4j/h0s8jllx34d4kvb_9k9v0kmh0000gn/T//cctne3Ma.s 			page 7


  28              		@ args = 0, pretend = 0, frame = 32
  29              		@ frame_needed = 0, uses_anonymous_args = 0
  30 0000 2DE9F043 		push	{r4, r5, r6, r7, r8, r9, lr}
  31              	.LCFI0:
  32              		.cfi_def_cfa_offset 28
  33              		.cfi_offset 4, -28
  34              		.cfi_offset 5, -24
  35              		.cfi_offset 6, -20
  36              		.cfi_offset 7, -16
  37              		.cfi_offset 8, -12
  38              		.cfi_offset 9, -8
  39              		.cfi_offset 14, -4
  40 0004 89B0     		sub	sp, sp, #36
  41              	.LCFI1:
  42              		.cfi_def_cfa_offset 64
 317:Core/Src/main.c ****   GPIO_InitTypeDef GPIO_InitStruct = {0};
  43              		.loc 1 317 3 view .LVU1
  44              		.loc 1 317 20 is_stmt 0 view .LVU2
  45 0006 0024     		movs	r4, #0
  46 0008 0494     		str	r4, [sp, #16]
  47 000a 0594     		str	r4, [sp, #20]
  48 000c 0694     		str	r4, [sp, #24]
  49 000e 0794     		str	r4, [sp, #28]
 318:Core/Src/main.c **** 
 319:Core/Src/main.c ****   /* GPIO Ports Clock Enable */
 320:Core/Src/main.c ****   __HAL_RCC_GPIOC_CLK_ENABLE();
  50              		.loc 1 320 3 is_stmt 1 view .LVU3
  51              	.LBB4:
  52              		.loc 1 320 3 view .LVU4
  53              		.loc 1 320 3 view .LVU5
  54 0010 434B     		ldr	r3, .L3
  55 0012 9A69     		ldr	r2, [r3, #24]
  56 0014 42F01002 		orr	r2, r2, #16
  57 0018 9A61     		str	r2, [r3, #24]
  58              		.loc 1 320 3 view .LVU6
  59 001a 9A69     		ldr	r2, [r3, #24]
  60 001c 02F01002 		and	r2, r2, #16
  61 0020 0092     		str	r2, [sp]
  62              		.loc 1 320 3 view .LVU7
  63 0022 009A     		ldr	r2, [sp]
  64              	.LBE4:
  65              		.loc 1 320 3 view .LVU8
 321:Core/Src/main.c ****   __HAL_RCC_GPIOD_CLK_ENABLE();
  66              		.loc 1 321 3 view .LVU9
  67              	.LBB5:
  68              		.loc 1 321 3 view .LVU10
  69              		.loc 1 321 3 view .LVU11
  70 0024 9A69     		ldr	r2, [r3, #24]
  71 0026 42F02002 		orr	r2, r2, #32
  72 002a 9A61     		str	r2, [r3, #24]
  73              		.loc 1 321 3 view .LVU12
  74 002c 9A69     		ldr	r2, [r3, #24]
  75 002e 02F02002 		and	r2, r2, #32
  76 0032 0192     		str	r2, [sp, #4]
  77              		.loc 1 321 3 view .LVU13
  78 0034 019A     		ldr	r2, [sp, #4]
  79              	.LBE5:
ARM GAS  /var/folders/4j/h0s8jllx34d4kvb_9k9v0kmh0000gn/T//cctne3Ma.s 			page 8


  80              		.loc 1 321 3 view .LVU14
 322:Core/Src/main.c ****   __HAL_RCC_GPIOA_CLK_ENABLE();
  81              		.loc 1 322 3 view .LVU15
  82              	.LBB6:
  83              		.loc 1 322 3 view .LVU16
  84              		.loc 1 322 3 view .LVU17
  85 0036 9A69     		ldr	r2, [r3, #24]
  86 0038 42F00402 		orr	r2, r2, #4
  87 003c 9A61     		str	r2, [r3, #24]
  88              		.loc 1 322 3 view .LVU18
  89 003e 9A69     		ldr	r2, [r3, #24]
  90 0040 02F00402 		and	r2, r2, #4
  91 0044 0292     		str	r2, [sp, #8]
  92              		.loc 1 322 3 view .LVU19
  93 0046 029A     		ldr	r2, [sp, #8]
  94              	.LBE6:
  95              		.loc 1 322 3 view .LVU20
 323:Core/Src/main.c ****   __HAL_RCC_GPIOB_CLK_ENABLE();
  96              		.loc 1 323 3 view .LVU21
  97              	.LBB7:
  98              		.loc 1 323 3 view .LVU22
  99              		.loc 1 323 3 view .LVU23
 100 0048 9A69     		ldr	r2, [r3, #24]
 101 004a 42F00802 		orr	r2, r2, #8
 102 004e 9A61     		str	r2, [r3, #24]
 103              		.loc 1 323 3 view .LVU24
 104 0050 9B69     		ldr	r3, [r3, #24]
 105 0052 03F00803 		and	r3, r3, #8
 106 0056 0393     		str	r3, [sp, #12]
 107              		.loc 1 323 3 view .LVU25
 108 0058 039B     		ldr	r3, [sp, #12]
 109              	.LBE7:
 110              		.loc 1 323 3 view .LVU26
 324:Core/Src/main.c **** 
 325:Core/Src/main.c ****   /*Configure GPIO pin Output Level */
 326:Core/Src/main.c ****   HAL_GPIO_WritePin(GPIOA, LD1_Pin|LD2_Pin|LD3_Pin|DISPLAY_CLK_Pin
 111              		.loc 1 326 3 view .LVU27
 112 005a DFF8C880 		ldr	r8, .L3+4
 113 005e 2246     		mov	r2, r4
 114 0060 4FF47871 		mov	r1, #992
 115 0064 4046     		mov	r0, r8
 116 0066 FFF7FEFF 		bl	HAL_GPIO_WritePin
 117              	.LVL0:
 327:Core/Src/main.c ****                           |DISPLAY_DATA_Pin, GPIO_PIN_RESET);
 328:Core/Src/main.c **** 
 329:Core/Src/main.c ****   /*Configure GPIO pin Output Level */
 330:Core/Src/main.c ****   HAL_GPIO_WritePin(GPIOB, DISPLAY_LATCH_Pin|LD4_Pin, GPIO_PIN_RESET);
 118              		.loc 1 330 3 view .LVU28
 119 006a 2F4D     		ldr	r5, .L3+8
 120 006c 2246     		mov	r2, r4
 121 006e 6021     		movs	r1, #96
 122 0070 2846     		mov	r0, r5
 123 0072 FFF7FEFF 		bl	HAL_GPIO_WritePin
 124              	.LVL1:
 331:Core/Src/main.c **** 
 332:Core/Src/main.c ****   /*Configure GPIO pin : B1_Pin */
 333:Core/Src/main.c ****   GPIO_InitStruct.Pin = B1_Pin;
ARM GAS  /var/folders/4j/h0s8jllx34d4kvb_9k9v0kmh0000gn/T//cctne3Ma.s 			page 9


 125              		.loc 1 333 3 view .LVU29
 126              		.loc 1 333 23 is_stmt 0 view .LVU30
 127 0076 4FF40053 		mov	r3, #8192
 128 007a 0493     		str	r3, [sp, #16]
 334:Core/Src/main.c ****   GPIO_InitStruct.Mode = GPIO_MODE_IT_RISING;
 129              		.loc 1 334 3 is_stmt 1 view .LVU31
 130              		.loc 1 334 24 is_stmt 0 view .LVU32
 131 007c 2B4F     		ldr	r7, .L3+12
 132 007e 0597     		str	r7, [sp, #20]
 335:Core/Src/main.c ****   GPIO_InitStruct.Pull = GPIO_NOPULL;
 133              		.loc 1 335 3 is_stmt 1 view .LVU33
 134              		.loc 1 335 24 is_stmt 0 view .LVU34
 135 0080 0694     		str	r4, [sp, #24]
 336:Core/Src/main.c ****   HAL_GPIO_Init(B1_GPIO_Port, &GPIO_InitStruct);
 136              		.loc 1 336 3 is_stmt 1 view .LVU35
 137 0082 04A9     		add	r1, sp, #16
 138 0084 2A48     		ldr	r0, .L3+16
 139 0086 FFF7FEFF 		bl	HAL_GPIO_Init
 140              	.LVL2:
 337:Core/Src/main.c **** 
 338:Core/Src/main.c ****   /*Configure GPIO pins : B_START_Pin B_DOWN_Pin */
 339:Core/Src/main.c ****   GPIO_InitStruct.Pin = B_START_Pin|B_DOWN_Pin;
 141              		.loc 1 339 3 view .LVU36
 142              		.loc 1 339 23 is_stmt 0 view .LVU37
 143 008a 1223     		movs	r3, #18
 144 008c 0493     		str	r3, [sp, #16]
 340:Core/Src/main.c ****   GPIO_InitStruct.Mode = GPIO_MODE_IT_RISING;
 145              		.loc 1 340 3 is_stmt 1 view .LVU38
 146              		.loc 1 340 24 is_stmt 0 view .LVU39
 147 008e 0597     		str	r7, [sp, #20]
 341:Core/Src/main.c ****   GPIO_InitStruct.Pull = GPIO_NOPULL;
 148              		.loc 1 341 3 is_stmt 1 view .LVU40
 149              		.loc 1 341 24 is_stmt 0 view .LVU41
 150 0090 0694     		str	r4, [sp, #24]
 342:Core/Src/main.c ****   HAL_GPIO_Init(GPIOA, &GPIO_InitStruct);
 151              		.loc 1 342 3 is_stmt 1 view .LVU42
 152 0092 04A9     		add	r1, sp, #16
 153 0094 4046     		mov	r0, r8
 154 0096 FFF7FEFF 		bl	HAL_GPIO_Init
 155              	.LVL3:
 343:Core/Src/main.c **** 
 344:Core/Src/main.c ****   /*Configure GPIO pins : LD1_Pin LD2_Pin LD3_Pin DISPLAY_CLK_Pin
 345:Core/Src/main.c ****                            DISPLAY_DATA_Pin */
 346:Core/Src/main.c ****   GPIO_InitStruct.Pin = LD1_Pin|LD2_Pin|LD3_Pin|DISPLAY_CLK_Pin
 156              		.loc 1 346 3 view .LVU43
 157              		.loc 1 346 23 is_stmt 0 view .LVU44
 158 009a 4FF47873 		mov	r3, #992
 159 009e 0493     		str	r3, [sp, #16]
 347:Core/Src/main.c ****                           |DISPLAY_DATA_Pin;
 348:Core/Src/main.c ****   GPIO_InitStruct.Mode = GPIO_MODE_OUTPUT_PP;
 160              		.loc 1 348 3 is_stmt 1 view .LVU45
 161              		.loc 1 348 24 is_stmt 0 view .LVU46
 162 00a0 0126     		movs	r6, #1
 163 00a2 0596     		str	r6, [sp, #20]
 349:Core/Src/main.c ****   GPIO_InitStruct.Pull = GPIO_NOPULL;
 164              		.loc 1 349 3 is_stmt 1 view .LVU47
 165              		.loc 1 349 24 is_stmt 0 view .LVU48
ARM GAS  /var/folders/4j/h0s8jllx34d4kvb_9k9v0kmh0000gn/T//cctne3Ma.s 			page 10


 166 00a4 0694     		str	r4, [sp, #24]
 350:Core/Src/main.c ****   GPIO_InitStruct.Speed = GPIO_SPEED_FREQ_LOW;
 167              		.loc 1 350 3 is_stmt 1 view .LVU49
 168              		.loc 1 350 25 is_stmt 0 view .LVU50
 169 00a6 4FF00209 		mov	r9, #2
 170 00aa CDF81C90 		str	r9, [sp, #28]
 351:Core/Src/main.c ****   HAL_GPIO_Init(GPIOA, &GPIO_InitStruct);
 171              		.loc 1 351 3 is_stmt 1 view .LVU51
 172 00ae 04A9     		add	r1, sp, #16
 173 00b0 4046     		mov	r0, r8
 174 00b2 FFF7FEFF 		bl	HAL_GPIO_Init
 175              	.LVL4:
 352:Core/Src/main.c **** 
 353:Core/Src/main.c ****   /*Configure GPIO pin : B_UP_Pin */
 354:Core/Src/main.c ****   GPIO_InitStruct.Pin = B_UP_Pin;
 176              		.loc 1 354 3 view .LVU52
 177              		.loc 1 354 23 is_stmt 0 view .LVU53
 178 00b6 0496     		str	r6, [sp, #16]
 355:Core/Src/main.c ****   GPIO_InitStruct.Mode = GPIO_MODE_IT_RISING;
 179              		.loc 1 355 3 is_stmt 1 view .LVU54
 180              		.loc 1 355 24 is_stmt 0 view .LVU55
 181 00b8 0597     		str	r7, [sp, #20]
 356:Core/Src/main.c ****   GPIO_InitStruct.Pull = GPIO_NOPULL;
 182              		.loc 1 356 3 is_stmt 1 view .LVU56
 183              		.loc 1 356 24 is_stmt 0 view .LVU57
 184 00ba 0694     		str	r4, [sp, #24]
 357:Core/Src/main.c ****   HAL_GPIO_Init(B_UP_GPIO_Port, &GPIO_InitStruct);
 185              		.loc 1 357 3 is_stmt 1 view .LVU58
 186 00bc 04A9     		add	r1, sp, #16
 187 00be 2846     		mov	r0, r5
 188 00c0 FFF7FEFF 		bl	HAL_GPIO_Init
 189              	.LVL5:
 358:Core/Src/main.c **** 
 359:Core/Src/main.c ****   /*Configure GPIO pins : DISPLAY_LATCH_Pin LD4_Pin */
 360:Core/Src/main.c ****   GPIO_InitStruct.Pin = DISPLAY_LATCH_Pin|LD4_Pin;
 190              		.loc 1 360 3 view .LVU59
 191              		.loc 1 360 23 is_stmt 0 view .LVU60
 192 00c4 6023     		movs	r3, #96
 193 00c6 0493     		str	r3, [sp, #16]
 361:Core/Src/main.c ****   GPIO_InitStruct.Mode = GPIO_MODE_OUTPUT_PP;
 194              		.loc 1 361 3 is_stmt 1 view .LVU61
 195              		.loc 1 361 24 is_stmt 0 view .LVU62
 196 00c8 0596     		str	r6, [sp, #20]
 362:Core/Src/main.c ****   GPIO_InitStruct.Pull = GPIO_NOPULL;
 197              		.loc 1 362 3 is_stmt 1 view .LVU63
 198              		.loc 1 362 24 is_stmt 0 view .LVU64
 199 00ca 0694     		str	r4, [sp, #24]
 363:Core/Src/main.c ****   GPIO_InitStruct.Speed = GPIO_SPEED_FREQ_LOW;
 200              		.loc 1 363 3 is_stmt 1 view .LVU65
 201              		.loc 1 363 25 is_stmt 0 view .LVU66
 202 00cc CDF81C90 		str	r9, [sp, #28]
 364:Core/Src/main.c ****   HAL_GPIO_Init(GPIOB, &GPIO_InitStruct);
 203              		.loc 1 364 3 is_stmt 1 view .LVU67
 204 00d0 04A9     		add	r1, sp, #16
 205 00d2 2846     		mov	r0, r5
 206 00d4 FFF7FEFF 		bl	HAL_GPIO_Init
 207              	.LVL6:
ARM GAS  /var/folders/4j/h0s8jllx34d4kvb_9k9v0kmh0000gn/T//cctne3Ma.s 			page 11


 365:Core/Src/main.c **** 
 366:Core/Src/main.c ****   /* EXTI interrupt init*/
 367:Core/Src/main.c ****   HAL_NVIC_SetPriority(EXTI0_IRQn, 0, 0);
 208              		.loc 1 367 3 view .LVU68
 209 00d8 2246     		mov	r2, r4
 210 00da 2146     		mov	r1, r4
 211 00dc 0620     		movs	r0, #6
 212 00de FFF7FEFF 		bl	HAL_NVIC_SetPriority
 213              	.LVL7:
 368:Core/Src/main.c ****   HAL_NVIC_EnableIRQ(EXTI0_IRQn);
 214              		.loc 1 368 3 view .LVU69
 215 00e2 0620     		movs	r0, #6
 216 00e4 FFF7FEFF 		bl	HAL_NVIC_EnableIRQ
 217              	.LVL8:
 369:Core/Src/main.c **** 
 370:Core/Src/main.c ****   HAL_NVIC_SetPriority(EXTI1_IRQn, 0, 0);
 218              		.loc 1 370 3 view .LVU70
 219 00e8 2246     		mov	r2, r4
 220 00ea 2146     		mov	r1, r4
 221 00ec 0720     		movs	r0, #7
 222 00ee FFF7FEFF 		bl	HAL_NVIC_SetPriority
 223              	.LVL9:
 371:Core/Src/main.c ****   HAL_NVIC_EnableIRQ(EXTI1_IRQn);
 224              		.loc 1 371 3 view .LVU71
 225 00f2 0720     		movs	r0, #7
 226 00f4 FFF7FEFF 		bl	HAL_NVIC_EnableIRQ
 227              	.LVL10:
 372:Core/Src/main.c **** 
 373:Core/Src/main.c ****   HAL_NVIC_SetPriority(EXTI4_IRQn, 0, 0);
 228              		.loc 1 373 3 view .LVU72
 229 00f8 2246     		mov	r2, r4
 230 00fa 2146     		mov	r1, r4
 231 00fc 0A20     		movs	r0, #10
 232 00fe FFF7FEFF 		bl	HAL_NVIC_SetPriority
 233              	.LVL11:
 374:Core/Src/main.c ****   HAL_NVIC_EnableIRQ(EXTI4_IRQn);
 234              		.loc 1 374 3 view .LVU73
 235 0102 0A20     		movs	r0, #10
 236 0104 FFF7FEFF 		bl	HAL_NVIC_EnableIRQ
 237              	.LVL12:
 375:Core/Src/main.c **** 
 376:Core/Src/main.c ****   HAL_NVIC_SetPriority(EXTI15_10_IRQn, 0, 0);
 238              		.loc 1 376 3 view .LVU74
 239 0108 2246     		mov	r2, r4
 240 010a 2146     		mov	r1, r4
 241 010c 2820     		movs	r0, #40
 242 010e FFF7FEFF 		bl	HAL_NVIC_SetPriority
 243              	.LVL13:
 377:Core/Src/main.c ****   HAL_NVIC_EnableIRQ(EXTI15_10_IRQn);
 244              		.loc 1 377 3 view .LVU75
 245 0112 2820     		movs	r0, #40
 246 0114 FFF7FEFF 		bl	HAL_NVIC_EnableIRQ
 247              	.LVL14:
 378:Core/Src/main.c **** 
 379:Core/Src/main.c **** }
 248              		.loc 1 379 1 is_stmt 0 view .LVU76
 249 0118 09B0     		add	sp, sp, #36
ARM GAS  /var/folders/4j/h0s8jllx34d4kvb_9k9v0kmh0000gn/T//cctne3Ma.s 			page 12


 250              	.LCFI2:
 251              		.cfi_def_cfa_offset 28
 252              		@ sp needed
 253 011a BDE8F083 		pop	{r4, r5, r6, r7, r8, r9, pc}
 254              	.L4:
 255 011e 00BF     		.align	2
 256              	.L3:
 257 0120 00100240 		.word	1073876992
 258 0124 00080140 		.word	1073809408
 259 0128 000C0140 		.word	1073810432
 260 012c 00001110 		.word	269549568
 261 0130 00100140 		.word	1073811456
 262              		.cfi_endproc
 263              	.LFE69:
 265              		.section	.text.writeByteToRegister,"ax",%progbits
 266              		.align	1
 267              		.global	writeByteToRegister
 268              		.syntax unified
 269              		.thumb
 270              		.thumb_func
 272              	writeByteToRegister:
 273              	.LVL15:
 274              	.LFB72:
 380:Core/Src/main.c **** 
 381:Core/Src/main.c **** /* USER CODE BEGIN 4 */
 382:Core/Src/main.c **** uint32_t lastStartPress = 0;
 383:Core/Src/main.c **** uint32_t lastBtnPress = 0;
 384:Core/Src/main.c **** void HAL_GPIO_EXTI_Callback(uint16_t GPIO_Pin)
 385:Core/Src/main.c **** {
 386:Core/Src/main.c **** 
 387:Core/Src/main.c ****   switch (GPIO_Pin)
 388:Core/Src/main.c ****   {
 389:Core/Src/main.c ****     case B_START_Pin:
 390:Core/Src/main.c ****       if ((HAL_GetTick() - lastBtnPress) < 100)
 391:Core/Src/main.c ****       {
 392:Core/Src/main.c ****         return;
 393:Core/Src/main.c ****       }
 394:Core/Src/main.c ****       if ((HAL_GetTick() - lastStartPress) < 700)
 395:Core/Src/main.c ****       {
 396:Core/Src/main.c ****         if (isNumberSizeChoice == 0)
 397:Core/Src/main.c ****         {
 398:Core/Src/main.c ****           isNumberSizeChoice = 1;
 399:Core/Src/main.c ****         }
 400:Core/Src/main.c ****         lastStartPress = HAL_GetTick();
 401:Core/Src/main.c ****         break;
 402:Core/Src/main.c ****       }
 403:Core/Src/main.c ****       if (isNumberSizeChoice == 1)
 404:Core/Src/main.c ****       {
 405:Core/Src/main.c ****         isNumberSizeChoice = 0;
 406:Core/Src/main.c ****       }
 407:Core/Src/main.c ****       lastStartPress = HAL_GetTick();
 408:Core/Src/main.c ****       generateNewNumber();
 409:Core/Src/main.c ****       lastBtnPress = HAL_GetTick();
 410:Core/Src/main.c ****       break;
 411:Core/Src/main.c ****     case B_DOWN_Pin:
 412:Core/Src/main.c ****       if ((HAL_GetTick() - lastBtnPress) < 100)
 413:Core/Src/main.c ****       {
ARM GAS  /var/folders/4j/h0s8jllx34d4kvb_9k9v0kmh0000gn/T//cctne3Ma.s 			page 13


 414:Core/Src/main.c ****         return;
 415:Core/Src/main.c ****       }
 416:Core/Src/main.c ****       if (isNumberSizeChoice)
 417:Core/Src/main.c ****       {
 418:Core/Src/main.c ****         if (numberSize - 1 >= 1)
 419:Core/Src/main.c ****         {
 420:Core/Src/main.c ****           numberSize--;
 421:Core/Src/main.c ****         }
 422:Core/Src/main.c ****       } else {
 423:Core/Src/main.c ****         if (drawingDelay < 650)
 424:Core/Src/main.c ****         {
 425:Core/Src/main.c ****           drawingDelay += 50;
 426:Core/Src/main.c ****         }
 427:Core/Src/main.c ****       }
 428:Core/Src/main.c ****       lastBtnPress = HAL_GetTick();
 429:Core/Src/main.c ****       break;
 430:Core/Src/main.c ****     case B_UP_Pin:
 431:Core/Src/main.c ****       if ((HAL_GetTick() - lastBtnPress) < 100)
 432:Core/Src/main.c ****       {
 433:Core/Src/main.c ****         return;
 434:Core/Src/main.c ****       }
 435:Core/Src/main.c ****       if (isNumberSizeChoice)
 436:Core/Src/main.c ****       {
 437:Core/Src/main.c ****         if (numberSize + 1 <= 15)
 438:Core/Src/main.c ****         {
 439:Core/Src/main.c ****           numberSize++;
 440:Core/Src/main.c ****         }
 441:Core/Src/main.c ****       } else {
 442:Core/Src/main.c ****         if (drawingDelay > 150)
 443:Core/Src/main.c ****         {
 444:Core/Src/main.c ****           drawingDelay -= 50;
 445:Core/Src/main.c ****         }
 446:Core/Src/main.c ****       }
 447:Core/Src/main.c ****       lastBtnPress = HAL_GetTick();
 448:Core/Src/main.c ****       break;
 449:Core/Src/main.c ****   }
 450:Core/Src/main.c **** }
 451:Core/Src/main.c **** 
 452:Core/Src/main.c **** void writeNumberToDisplay(uint8_t number, uint8_t segment)
 453:Core/Src/main.c **** {
 454:Core/Src/main.c ****   writeByteToRegister(number);
 455:Core/Src/main.c ****   writeByteToRegister(segment);
 456:Core/Src/main.c ****   HAL_GPIO_WritePin(DISPLAY_LATCH_GPIO_Port, DISPLAY_LATCH_Pin, GPIO_PIN_RESET);
 457:Core/Src/main.c ****   HAL_GPIO_WritePin(DISPLAY_LATCH_GPIO_Port, DISPLAY_LATCH_Pin, GPIO_PIN_SET);
 458:Core/Src/main.c **** }
 459:Core/Src/main.c **** 
 460:Core/Src/main.c **** void writeByteToRegister(uint8_t number)
 461:Core/Src/main.c **** {
 275              		.loc 1 461 1 is_stmt 1 view -0
 276              		.cfi_startproc
 277              		@ args = 0, pretend = 0, frame = 0
 278              		@ frame_needed = 0, uses_anonymous_args = 0
 279              		.loc 1 461 1 is_stmt 0 view .LVU78
 280 0000 F8B5     		push	{r3, r4, r5, r6, r7, lr}
 281              	.LCFI3:
 282              		.cfi_def_cfa_offset 24
 283              		.cfi_offset 3, -24
ARM GAS  /var/folders/4j/h0s8jllx34d4kvb_9k9v0kmh0000gn/T//cctne3Ma.s 			page 14


 284              		.cfi_offset 4, -20
 285              		.cfi_offset 5, -16
 286              		.cfi_offset 6, -12
 287              		.cfi_offset 7, -8
 288              		.cfi_offset 14, -4
 289 0002 0746     		mov	r7, r0
 462:Core/Src/main.c ****   for (int i = 0; i < 8; i++)
 290              		.loc 1 462 3 is_stmt 1 view .LVU79
 291              	.LBB8:
 292              		.loc 1 462 8 view .LVU80
 293              	.LVL16:
 294              		.loc 1 462 12 is_stmt 0 view .LVU81
 295 0004 0024     		movs	r4, #0
 296              		.loc 1 462 3 view .LVU82
 297 0006 1AE0     		b	.L6
 298              	.LVL17:
 299              	.L7:
 300              	.LBB9:
 463:Core/Src/main.c ****   {
 464:Core/Src/main.c ****     HAL_GPIO_WritePin(DISPLAY_CLK_GPIO_Port, DISPLAY_CLK_Pin, GPIO_PIN_RESET);
 301              		.loc 1 464 5 is_stmt 1 discriminator 3 view .LVU83
 302 0008 0E4D     		ldr	r5, .L9
 303 000a 0022     		movs	r2, #0
 304 000c 4FF48071 		mov	r1, #256
 305 0010 2846     		mov	r0, r5
 306 0012 FFF7FEFF 		bl	HAL_GPIO_WritePin
 307              	.LVL18:
 465:Core/Src/main.c ****     uint8_t bit = (number & (0b00000001 << i));
 308              		.loc 1 465 5 discriminator 3 view .LVU84
 309              		.loc 1 465 41 is_stmt 0 discriminator 3 view .LVU85
 310 0016 0126     		movs	r6, #1
 311 0018 06FA04F2 		lsl	r2, r6, r4
 312              		.loc 1 465 27 discriminator 3 view .LVU86
 313 001c 3A40     		ands	r2, r2, r7
 314 001e 52B2     		sxtb	r2, r2
 315              	.LVL19:
 466:Core/Src/main.c ****     HAL_GPIO_WritePin(DISPLAY_DATA_GPIO_Port, DISPLAY_DATA_Pin, bit == 0 ? GPIO_PIN_RESET : GPIO_PI
 316              		.loc 1 466 5 is_stmt 1 discriminator 3 view .LVU87
 317 0020 003A     		subs	r2, r2, #0
 318              		.loc 1 466 5 is_stmt 0 discriminator 3 view .LVU88
 319 0022 18BF     		it	ne
 320 0024 0122     		movne	r2, #1
 321              	.LVL20:
 322              		.loc 1 466 5 discriminator 3 view .LVU89
 323 0026 4FF40071 		mov	r1, #512
 324 002a 2846     		mov	r0, r5
 325 002c FFF7FEFF 		bl	HAL_GPIO_WritePin
 326              	.LVL21:
 467:Core/Src/main.c ****     HAL_GPIO_WritePin(DISPLAY_CLK_GPIO_Port, DISPLAY_CLK_Pin, GPIO_PIN_SET);
 327              		.loc 1 467 5 is_stmt 1 discriminator 3 view .LVU90
 328 0030 3246     		mov	r2, r6
 329 0032 4FF48071 		mov	r1, #256
 330 0036 2846     		mov	r0, r5
 331 0038 FFF7FEFF 		bl	HAL_GPIO_WritePin
 332              	.LVL22:
 333              	.LBE9:
 462:Core/Src/main.c ****   {
ARM GAS  /var/folders/4j/h0s8jllx34d4kvb_9k9v0kmh0000gn/T//cctne3Ma.s 			page 15


 334              		.loc 1 462 26 discriminator 3 view .LVU91
 462:Core/Src/main.c ****   {
 335              		.loc 1 462 27 is_stmt 0 discriminator 3 view .LVU92
 336 003c 3444     		add	r4, r4, r6
 337              	.LVL23:
 338              	.L6:
 462:Core/Src/main.c ****   {
 339              		.loc 1 462 19 is_stmt 1 discriminator 1 view .LVU93
 462:Core/Src/main.c ****   {
 340              		.loc 1 462 3 is_stmt 0 discriminator 1 view .LVU94
 341 003e 072C     		cmp	r4, #7
 342 0040 E2DD     		ble	.L7
 343              	.LBE8:
 468:Core/Src/main.c ****   }
 469:Core/Src/main.c **** }
 344              		.loc 1 469 1 view .LVU95
 345 0042 F8BD     		pop	{r3, r4, r5, r6, r7, pc}
 346              	.LVL24:
 347              	.L10:
 348              		.loc 1 469 1 view .LVU96
 349              		.align	2
 350              	.L9:
 351 0044 00080140 		.word	1073809408
 352              		.cfi_endproc
 353              	.LFE72:
 355              		.section	.text.writeNumberToDisplay,"ax",%progbits
 356              		.align	1
 357              		.global	writeNumberToDisplay
 358              		.syntax unified
 359              		.thumb
 360              		.thumb_func
 362              	writeNumberToDisplay:
 363              	.LVL25:
 364              	.LFB71:
 453:Core/Src/main.c ****   writeByteToRegister(number);
 365              		.loc 1 453 1 is_stmt 1 view -0
 366              		.cfi_startproc
 367              		@ args = 0, pretend = 0, frame = 0
 368              		@ frame_needed = 0, uses_anonymous_args = 0
 453:Core/Src/main.c ****   writeByteToRegister(number);
 369              		.loc 1 453 1 is_stmt 0 view .LVU98
 370 0000 10B5     		push	{r4, lr}
 371              	.LCFI4:
 372              		.cfi_def_cfa_offset 8
 373              		.cfi_offset 4, -8
 374              		.cfi_offset 14, -4
 375 0002 0C46     		mov	r4, r1
 454:Core/Src/main.c ****   writeByteToRegister(segment);
 376              		.loc 1 454 3 is_stmt 1 view .LVU99
 377 0004 FFF7FEFF 		bl	writeByteToRegister
 378              	.LVL26:
 455:Core/Src/main.c ****   HAL_GPIO_WritePin(DISPLAY_LATCH_GPIO_Port, DISPLAY_LATCH_Pin, GPIO_PIN_RESET);
 379              		.loc 1 455 3 view .LVU100
 380 0008 2046     		mov	r0, r4
 381 000a FFF7FEFF 		bl	writeByteToRegister
 382              	.LVL27:
 456:Core/Src/main.c ****   HAL_GPIO_WritePin(DISPLAY_LATCH_GPIO_Port, DISPLAY_LATCH_Pin, GPIO_PIN_SET);
ARM GAS  /var/folders/4j/h0s8jllx34d4kvb_9k9v0kmh0000gn/T//cctne3Ma.s 			page 16


 383              		.loc 1 456 3 view .LVU101
 384 000e 064C     		ldr	r4, .L13
 385 0010 0022     		movs	r2, #0
 386 0012 2021     		movs	r1, #32
 387 0014 2046     		mov	r0, r4
 388 0016 FFF7FEFF 		bl	HAL_GPIO_WritePin
 389              	.LVL28:
 457:Core/Src/main.c **** }
 390              		.loc 1 457 3 view .LVU102
 391 001a 0122     		movs	r2, #1
 392 001c 2021     		movs	r1, #32
 393 001e 2046     		mov	r0, r4
 394 0020 FFF7FEFF 		bl	HAL_GPIO_WritePin
 395              	.LVL29:
 458:Core/Src/main.c **** 
 396              		.loc 1 458 1 is_stmt 0 view .LVU103
 397 0024 10BD     		pop	{r4, pc}
 398              	.L14:
 399 0026 00BF     		.align	2
 400              	.L13:
 401 0028 000C0140 		.word	1073810432
 402              		.cfi_endproc
 403              	.LFE71:
 405              		.section	.text.drawNumbers,"ax",%progbits
 406              		.align	1
 407              		.global	drawNumbers
 408              		.syntax unified
 409              		.thumb
 410              		.thumb_func
 412              	drawNumbers:
 413              	.LVL30:
 414              	.LFB73:
 470:Core/Src/main.c **** 
 471:Core/Src/main.c **** void drawNumbers(int8_t begin)
 472:Core/Src/main.c **** {
 415              		.loc 1 472 1 is_stmt 1 view -0
 416              		.cfi_startproc
 417              		@ args = 0, pretend = 0, frame = 0
 418              		@ frame_needed = 0, uses_anonymous_args = 0
 419              		.loc 1 472 1 is_stmt 0 view .LVU105
 420 0000 38B5     		push	{r3, r4, r5, lr}
 421              	.LCFI5:
 422              		.cfi_def_cfa_offset 16
 423              		.cfi_offset 3, -16
 424              		.cfi_offset 4, -12
 425              		.cfi_offset 5, -8
 426              		.cfi_offset 14, -4
 427 0002 0546     		mov	r5, r0
 473:Core/Src/main.c ****   for (int8_t i = 0; i < 4; i++)
 428              		.loc 1 473 3 is_stmt 1 view .LVU106
 429              	.LBB10:
 430              		.loc 1 473 8 view .LVU107
 431              	.LVL31:
 432              		.loc 1 473 15 is_stmt 0 view .LVU108
 433 0004 0024     		movs	r4, #0
 434              		.loc 1 473 3 view .LVU109
 435 0006 06E0     		b	.L16
ARM GAS  /var/folders/4j/h0s8jllx34d4kvb_9k9v0kmh0000gn/T//cctne3Ma.s 			page 17


 436              	.LVL32:
 437              	.L17:
 474:Core/Src/main.c ****   {
 475:Core/Src/main.c ****     if (begin + i < numberSize && begin + i >= 0)
 476:Core/Src/main.c ****     {
 477:Core/Src/main.c ****       writeNumberToDisplay(NUMBERS[NUMBER[begin + i]], SEGMENTS[i]);
 478:Core/Src/main.c ****     }
 479:Core/Src/main.c ****     else
 480:Core/Src/main.c ****     {
 481:Core/Src/main.c ****       writeNumberToDisplay(0xFF, SEGMENTS[i]);
 438              		.loc 1 481 7 is_stmt 1 view .LVU110
 439 0008 0D4B     		ldr	r3, .L22
 440 000a 595C     		ldrb	r1, [r3, r1]	@ zero_extendqisi2
 441 000c FF20     		movs	r0, #255
 442 000e FFF7FEFF 		bl	writeNumberToDisplay
 443              	.LVL33:
 444              	.L18:
 473:Core/Src/main.c ****   for (int8_t i = 0; i < 4; i++)
 445              		.loc 1 473 29 discriminator 2 view .LVU111
 473:Core/Src/main.c ****   for (int8_t i = 0; i < 4; i++)
 446              		.loc 1 473 30 is_stmt 0 discriminator 2 view .LVU112
 447 0012 0134     		adds	r4, r4, #1
 448              	.LVL34:
 473:Core/Src/main.c ****   for (int8_t i = 0; i < 4; i++)
 449              		.loc 1 473 30 discriminator 2 view .LVU113
 450 0014 64B2     		sxtb	r4, r4
 451              	.LVL35:
 452              	.L16:
 473:Core/Src/main.c ****   for (int8_t i = 0; i < 4; i++)
 453              		.loc 1 473 22 is_stmt 1 discriminator 1 view .LVU114
 473:Core/Src/main.c ****   for (int8_t i = 0; i < 4; i++)
 454              		.loc 1 473 3 is_stmt 0 discriminator 1 view .LVU115
 455 0016 032C     		cmp	r4, #3
 456 0018 11DC     		bgt	.L21
 475:Core/Src/main.c ****     {
 457              		.loc 1 475 5 is_stmt 1 view .LVU116
 475:Core/Src/main.c ****     {
 458              		.loc 1 475 15 is_stmt 0 view .LVU117
 459 001a 2146     		mov	r1, r4
 460 001c 2B19     		adds	r3, r5, r4
 475:Core/Src/main.c ****     {
 461              		.loc 1 475 19 view .LVU118
 462 001e 094A     		ldr	r2, .L22+4
 463 0020 92F90020 		ldrsb	r2, [r2]
 475:Core/Src/main.c ****     {
 464              		.loc 1 475 8 view .LVU119
 465 0024 9342     		cmp	r3, r2
 466 0026 EFDA     		bge	.L17
 475:Core/Src/main.c ****     {
 467              		.loc 1 475 32 discriminator 1 view .LVU120
 468 0028 002B     		cmp	r3, #0
 469 002a EDDB     		blt	.L17
 477:Core/Src/main.c ****     }
 470              		.loc 1 477 7 is_stmt 1 view .LVU121
 477:Core/Src/main.c ****     }
 471              		.loc 1 477 42 is_stmt 0 view .LVU122
 472 002c 064A     		ldr	r2, .L22+8
ARM GAS  /var/folders/4j/h0s8jllx34d4kvb_9k9v0kmh0000gn/T//cctne3Ma.s 			page 18


 473 002e D35C     		ldrb	r3, [r2, r3]	@ zero_extendqisi2
 477:Core/Src/main.c ****     }
 474              		.loc 1 477 7 view .LVU123
 475 0030 034A     		ldr	r2, .L22
 476 0032 115D     		ldrb	r1, [r2, r4]	@ zero_extendqisi2
 477 0034 054A     		ldr	r2, .L22+12
 478 0036 D05C     		ldrb	r0, [r2, r3]	@ zero_extendqisi2
 479 0038 FFF7FEFF 		bl	writeNumberToDisplay
 480              	.LVL36:
 481 003c E9E7     		b	.L18
 482              	.L21:
 483              	.LBE10:
 482:Core/Src/main.c ****     }
 483:Core/Src/main.c ****   }
 484:Core/Src/main.c **** }
 484              		.loc 1 484 1 view .LVU124
 485 003e 38BD     		pop	{r3, r4, r5, pc}
 486              	.LVL37:
 487              	.L23:
 488              		.loc 1 484 1 view .LVU125
 489              		.align	2
 490              	.L22:
 491 0040 00000000 		.word	.LANCHOR2
 492 0044 00000000 		.word	.LANCHOR0
 493 0048 00000000 		.word	.LANCHOR1
 494 004c 00000000 		.word	.LANCHOR3
 495              		.cfi_endproc
 496              	.LFE73:
 498              		.section	.text.drawNumber,"ax",%progbits
 499              		.align	1
 500              		.global	drawNumber
 501              		.syntax unified
 502              		.thumb
 503              		.thumb_func
 505              	drawNumber:
 506              	.LVL38:
 507              	.LFB74:
 485:Core/Src/main.c **** 
 486:Core/Src/main.c **** void drawNumber(uint8_t number)
 487:Core/Src/main.c **** {
 508              		.loc 1 487 1 is_stmt 1 view -0
 509              		.cfi_startproc
 510              		@ args = 0, pretend = 0, frame = 0
 511              		@ frame_needed = 0, uses_anonymous_args = 0
 512              		.loc 1 487 1 is_stmt 0 view .LVU127
 513 0000 70B5     		push	{r4, r5, r6, lr}
 514              	.LCFI6:
 515              		.cfi_def_cfa_offset 16
 516              		.cfi_offset 4, -16
 517              		.cfi_offset 5, -12
 518              		.cfi_offset 6, -8
 519              		.cfi_offset 14, -4
 520 0002 0546     		mov	r5, r0
 488:Core/Src/main.c ****   uint8_t t = number / 1000;
 521              		.loc 1 488 3 is_stmt 1 view .LVU128
 522              	.LVL39:
 489:Core/Src/main.c ****   uint8_t h = number / 100;
ARM GAS  /var/folders/4j/h0s8jllx34d4kvb_9k9v0kmh0000gn/T//cctne3Ma.s 			page 19


 523              		.loc 1 489 3 view .LVU129
 524              		.loc 1 489 11 is_stmt 0 view .LVU130
 525 0004 144B     		ldr	r3, .L33
 526 0006 A3FB0023 		umull	r2, r3, r3, r0
 527 000a 5A09     		lsrs	r2, r3, #5
 528              	.LVL40:
 490:Core/Src/main.c ****   uint8_t d = number / 10;
 529              		.loc 1 490 3 is_stmt 1 view .LVU131
 530              		.loc 1 490 11 is_stmt 0 view .LVU132
 531 000c 1349     		ldr	r1, .L33+4
 532 000e A1FB0031 		umull	r3, r1, r1, r0
 533 0012 CB08     		lsrs	r3, r1, #3
 534 0014 1E46     		mov	r6, r3
 535              	.LVL41:
 491:Core/Src/main.c ****   uint8_t o = number % 10;
 536              		.loc 1 491 3 is_stmt 1 view .LVU133
 537              		.loc 1 491 11 is_stmt 0 view .LVU134
 538 0016 03EB8303 		add	r3, r3, r3, lsl #2
 539              	.LVL42:
 540              		.loc 1 491 11 view .LVU135
 541 001a A0EB4304 		sub	r4, r0, r3, lsl #1
 542 001e E4B2     		uxtb	r4, r4
 543              	.LVL43:
 492:Core/Src/main.c ****   if (t > 0)
 544              		.loc 1 492 3 is_stmt 1 view .LVU136
 493:Core/Src/main.c ****   {
 494:Core/Src/main.c ****     writeNumberToDisplay(NUMBERS[t], SEGMENTS[0]);
 495:Core/Src/main.c ****   }
 496:Core/Src/main.c ****   if (h > 0)
 545              		.loc 1 496 3 view .LVU137
 546              		.loc 1 496 6 is_stmt 0 view .LVU138
 547 0020 6328     		cmp	r0, #99
 548 0022 08D8     		bhi	.L31
 549              	.LVL44:
 550              	.L26:
 497:Core/Src/main.c ****   {
 498:Core/Src/main.c ****     writeNumberToDisplay(NUMBERS[h], SEGMENTS[1]);
 499:Core/Src/main.c ****   }
 500:Core/Src/main.c ****   if (d > 0)
 551              		.loc 1 500 3 is_stmt 1 view .LVU139
 552              		.loc 1 500 6 is_stmt 0 view .LVU140
 553 0024 092D     		cmp	r5, #9
 554 0026 0CD8     		bhi	.L32
 555              	.L27:
 501:Core/Src/main.c ****   {
 502:Core/Src/main.c ****     writeNumberToDisplay(NUMBERS[d], SEGMENTS[2]);
 503:Core/Src/main.c ****   }
 504:Core/Src/main.c ****   if (o > 0)
 556              		.loc 1 504 3 is_stmt 1 view .LVU141
 557              		.loc 1 504 6 is_stmt 0 view .LVU142
 558 0028 8CB1     		cbz	r4, .L28
 505:Core/Src/main.c ****   {
 506:Core/Src/main.c ****     writeNumberToDisplay(NUMBERS[o], SEGMENTS[3]);
 559              		.loc 1 506 5 is_stmt 1 view .LVU143
 560 002a 1021     		movs	r1, #16
 561 002c 0C4B     		ldr	r3, .L33+8
 562 002e 185D     		ldrb	r0, [r3, r4]	@ zero_extendqisi2
ARM GAS  /var/folders/4j/h0s8jllx34d4kvb_9k9v0kmh0000gn/T//cctne3Ma.s 			page 20


 563 0030 FFF7FEFF 		bl	writeNumberToDisplay
 564              	.LVL45:
 565              	.L24:
 507:Core/Src/main.c ****   }
 508:Core/Src/main.c ****   else
 509:Core/Src/main.c ****   {
 510:Core/Src/main.c ****     writeNumberToDisplay(NUMBERS[0], SEGMENTS[3]);
 511:Core/Src/main.c ****   }
 512:Core/Src/main.c **** }
 566              		.loc 1 512 1 is_stmt 0 view .LVU144
 567 0034 70BD     		pop	{r4, r5, r6, pc}
 568              	.LVL46:
 569              	.L31:
 498:Core/Src/main.c ****   }
 570              		.loc 1 498 5 is_stmt 1 view .LVU145
 571 0036 4F21     		movs	r1, #79
 572 0038 094B     		ldr	r3, .L33+8
 573 003a 985C     		ldrb	r0, [r3, r2]	@ zero_extendqisi2
 574              	.LVL47:
 498:Core/Src/main.c ****   }
 575              		.loc 1 498 5 is_stmt 0 view .LVU146
 576 003c FFF7FEFF 		bl	writeNumberToDisplay
 577              	.LVL48:
 498:Core/Src/main.c ****   }
 578              		.loc 1 498 5 view .LVU147
 579 0040 F0E7     		b	.L26
 580              	.L32:
 502:Core/Src/main.c ****   }
 581              		.loc 1 502 5 is_stmt 1 view .LVU148
 582 0042 2021     		movs	r1, #32
 583 0044 064B     		ldr	r3, .L33+8
 584 0046 985D     		ldrb	r0, [r3, r6]	@ zero_extendqisi2
 585 0048 FFF7FEFF 		bl	writeNumberToDisplay
 586              	.LVL49:
 587 004c ECE7     		b	.L27
 588              	.L28:
 510:Core/Src/main.c ****   }
 589              		.loc 1 510 5 view .LVU149
 590 004e 1021     		movs	r1, #16
 591 0050 0320     		movs	r0, #3
 592 0052 FFF7FEFF 		bl	writeNumberToDisplay
 593              	.LVL50:
 594              		.loc 1 512 1 is_stmt 0 view .LVU150
 595 0056 EDE7     		b	.L24
 596              	.L34:
 597              		.align	2
 598              	.L33:
 599 0058 1F85EB51 		.word	1374389535
 600 005c CDCCCCCC 		.word	-858993459
 601 0060 00000000 		.word	.LANCHOR3
 602              		.cfi_endproc
 603              	.LFE74:
 605              		.section	.text.nextRandom,"ax",%progbits
 606              		.align	1
 607              		.global	nextRandom
 608              		.syntax unified
 609              		.thumb
ARM GAS  /var/folders/4j/h0s8jllx34d4kvb_9k9v0kmh0000gn/T//cctne3Ma.s 			page 21


 610              		.thumb_func
 612              	nextRandom:
 613              	.LFB75:
 513:Core/Src/main.c **** 
 514:Core/Src/main.c **** uint32_t seed = 7;
 515:Core/Src/main.c **** uint32_t prev = 1;
 516:Core/Src/main.c **** uint8_t nextRandom()
 517:Core/Src/main.c **** {
 614              		.loc 1 517 1 is_stmt 1 view -0
 615              		.cfi_startproc
 616              		@ args = 0, pretend = 0, frame = 0
 617              		@ frame_needed = 0, uses_anonymous_args = 0
 618              		@ link register save eliminated.
 518:Core/Src/main.c ****   uint32_t res = prev * seed % 10;
 619              		.loc 1 518 3 view .LVU152
 620              		.loc 1 518 23 is_stmt 0 view .LVU153
 621 0000 084A     		ldr	r2, .L36
 622 0002 1368     		ldr	r3, [r2]
 623 0004 0849     		ldr	r1, .L36+4
 624 0006 0968     		ldr	r1, [r1]
 625 0008 01FB03F3 		mul	r3, r1, r3
 626              		.loc 1 518 12 view .LVU154
 627 000c 0748     		ldr	r0, .L36+8
 628 000e A0FB0310 		umull	r1, r0, r0, r3
 629 0012 C008     		lsrs	r0, r0, #3
 630 0014 00EB8000 		add	r0, r0, r0, lsl #2
 631 0018 4100     		lsls	r1, r0, #1
 632 001a 581A     		subs	r0, r3, r1
 633              	.LVL51:
 519:Core/Src/main.c ****   prev = res;
 634              		.loc 1 519 3 is_stmt 1 view .LVU155
 635              		.loc 1 519 8 is_stmt 0 view .LVU156
 636 001c 1060     		str	r0, [r2]
 520:Core/Src/main.c ****   return (uint8_t) res;
 637              		.loc 1 520 3 is_stmt 1 view .LVU157
 521:Core/Src/main.c **** }
 638              		.loc 1 521 1 is_stmt 0 view .LVU158
 639 001e C0B2     		uxtb	r0, r0
 640              	.LVL52:
 641              		.loc 1 521 1 view .LVU159
 642 0020 7047     		bx	lr
 643              	.L37:
 644 0022 00BF     		.align	2
 645              	.L36:
 646 0024 00000000 		.word	.LANCHOR4
 647 0028 00000000 		.word	.LANCHOR5
 648 002c CDCCCCCC 		.word	-858993459
 649              		.cfi_endproc
 650              	.LFE75:
 652              		.section	.text.generateNewNumber,"ax",%progbits
 653              		.align	1
 654              		.global	generateNewNumber
 655              		.syntax unified
 656              		.thumb
 657              		.thumb_func
 659              	generateNewNumber:
 660              	.LFB76:
ARM GAS  /var/folders/4j/h0s8jllx34d4kvb_9k9v0kmh0000gn/T//cctne3Ma.s 			page 22


 522:Core/Src/main.c **** 
 523:Core/Src/main.c **** void generateNewNumber()
 524:Core/Src/main.c **** {
 661              		.loc 1 524 1 is_stmt 1 view -0
 662              		.cfi_startproc
 663              		@ args = 0, pretend = 0, frame = 0
 664              		@ frame_needed = 0, uses_anonymous_args = 0
 665 0000 10B5     		push	{r4, lr}
 666              	.LCFI7:
 667              		.cfi_def_cfa_offset 8
 668              		.cfi_offset 4, -8
 669              		.cfi_offset 14, -4
 525:Core/Src/main.c ****   isGenerating = 1;
 670              		.loc 1 525 3 view .LVU161
 671              		.loc 1 525 16 is_stmt 0 view .LVU162
 672 0002 0A4B     		ldr	r3, .L42
 673 0004 0122     		movs	r2, #1
 674 0006 1A70     		strb	r2, [r3]
 526:Core/Src/main.c ****   currPos = -4;
 675              		.loc 1 526 3 is_stmt 1 view .LVU163
 676              		.loc 1 526 11 is_stmt 0 view .LVU164
 677 0008 094B     		ldr	r3, .L42+4
 678 000a FC22     		movs	r2, #252
 679 000c 1A70     		strb	r2, [r3]
 527:Core/Src/main.c ****   for (uint8_t i = 0; i < numberSize; i++)
 680              		.loc 1 527 3 is_stmt 1 view .LVU165
 681              	.LBB11:
 682              		.loc 1 527 8 view .LVU166
 683              	.LVL53:
 684              		.loc 1 527 16 is_stmt 0 view .LVU167
 685 000e 0024     		movs	r4, #0
 686              		.loc 1 527 3 view .LVU168
 687 0010 05E0     		b	.L39
 688              	.LVL54:
 689              	.L40:
 528:Core/Src/main.c ****   {
 529:Core/Src/main.c ****     NUMBER[i] = nextRandom();
 690              		.loc 1 529 5 is_stmt 1 discriminator 3 view .LVU169
 691              		.loc 1 529 17 is_stmt 0 discriminator 3 view .LVU170
 692 0012 FFF7FEFF 		bl	nextRandom
 693              	.LVL55:
 694              		.loc 1 529 15 discriminator 3 view .LVU171
 695 0016 074B     		ldr	r3, .L42+8
 696 0018 1855     		strb	r0, [r3, r4]
 527:Core/Src/main.c ****   for (uint8_t i = 0; i < numberSize; i++)
 697              		.loc 1 527 39 is_stmt 1 discriminator 3 view .LVU172
 527:Core/Src/main.c ****   for (uint8_t i = 0; i < numberSize; i++)
 698              		.loc 1 527 40 is_stmt 0 discriminator 3 view .LVU173
 699 001a 0134     		adds	r4, r4, #1
 700              	.LVL56:
 527:Core/Src/main.c ****   for (uint8_t i = 0; i < numberSize; i++)
 701              		.loc 1 527 40 discriminator 3 view .LVU174
 702 001c E4B2     		uxtb	r4, r4
 703              	.LVL57:
 704              	.L39:
 527:Core/Src/main.c ****   for (uint8_t i = 0; i < numberSize; i++)
 705              		.loc 1 527 23 is_stmt 1 discriminator 1 view .LVU175
ARM GAS  /var/folders/4j/h0s8jllx34d4kvb_9k9v0kmh0000gn/T//cctne3Ma.s 			page 23


 527:Core/Src/main.c ****   for (uint8_t i = 0; i < numberSize; i++)
 706              		.loc 1 527 25 is_stmt 0 discriminator 1 view .LVU176
 707 001e 064B     		ldr	r3, .L42+12
 708 0020 93F90030 		ldrsb	r3, [r3]
 527:Core/Src/main.c ****   for (uint8_t i = 0; i < numberSize; i++)
 709              		.loc 1 527 3 discriminator 1 view .LVU177
 710 0024 9C42     		cmp	r4, r3
 711 0026 F4DB     		blt	.L40
 712              	.LBE11:
 530:Core/Src/main.c ****   }
 531:Core/Src/main.c ****   return;
 532:Core/Src/main.c **** }
 713              		.loc 1 532 1 view .LVU178
 714 0028 10BD     		pop	{r4, pc}
 715              	.LVL58:
 716              	.L43:
 717              		.loc 1 532 1 view .LVU179
 718 002a 00BF     		.align	2
 719              	.L42:
 720 002c 00000000 		.word	.LANCHOR6
 721 0030 00000000 		.word	.LANCHOR7
 722 0034 00000000 		.word	.LANCHOR1
 723 0038 00000000 		.word	.LANCHOR0
 724              		.cfi_endproc
 725              	.LFE76:
 727              		.section	.text.HAL_GPIO_EXTI_Callback,"ax",%progbits
 728              		.align	1
 729              		.global	HAL_GPIO_EXTI_Callback
 730              		.syntax unified
 731              		.thumb
 732              		.thumb_func
 734              	HAL_GPIO_EXTI_Callback:
 735              	.LVL59:
 736              	.LFB70:
 385:Core/Src/main.c **** 
 737              		.loc 1 385 1 is_stmt 1 view -0
 738              		.cfi_startproc
 739              		@ args = 0, pretend = 0, frame = 0
 740              		@ frame_needed = 0, uses_anonymous_args = 0
 385:Core/Src/main.c **** 
 741              		.loc 1 385 1 is_stmt 0 view .LVU181
 742 0000 08B5     		push	{r3, lr}
 743              	.LCFI8:
 744              		.cfi_def_cfa_offset 8
 745              		.cfi_offset 3, -8
 746              		.cfi_offset 14, -4
 387:Core/Src/main.c ****   {
 747              		.loc 1 387 3 is_stmt 1 view .LVU182
 748 0002 0228     		cmp	r0, #2
 749 0004 04D0     		beq	.L45
 750 0006 1028     		cmp	r0, #16
 751 0008 2FD0     		beq	.L46
 752 000a 0128     		cmp	r0, #1
 753 000c 4ED0     		beq	.L57
 754              	.LVL60:
 755              	.L44:
 450:Core/Src/main.c **** 
ARM GAS  /var/folders/4j/h0s8jllx34d4kvb_9k9v0kmh0000gn/T//cctne3Ma.s 			page 24


 756              		.loc 1 450 1 is_stmt 0 view .LVU183
 757 000e 08BD     		pop	{r3, pc}
 758              	.LVL61:
 759              	.L45:
 390:Core/Src/main.c ****       {
 760              		.loc 1 390 7 is_stmt 1 view .LVU184
 390:Core/Src/main.c ****       {
 761              		.loc 1 390 12 is_stmt 0 view .LVU185
 762 0010 FFF7FEFF 		bl	HAL_GetTick
 763              	.LVL62:
 390:Core/Src/main.c ****       {
 764              		.loc 1 390 26 view .LVU186
 765 0014 354B     		ldr	r3, .L59
 766 0016 1B68     		ldr	r3, [r3]
 767 0018 C01A     		subs	r0, r0, r3
 390:Core/Src/main.c ****       {
 768              		.loc 1 390 10 view .LVU187
 769 001a 6328     		cmp	r0, #99
 770 001c F7D9     		bls	.L44
 394:Core/Src/main.c ****       {
 771              		.loc 1 394 7 is_stmt 1 view .LVU188
 394:Core/Src/main.c ****       {
 772              		.loc 1 394 12 is_stmt 0 view .LVU189
 773 001e FFF7FEFF 		bl	HAL_GetTick
 774              	.LVL63:
 394:Core/Src/main.c ****       {
 775              		.loc 1 394 26 view .LVU190
 776 0022 334B     		ldr	r3, .L59+4
 777 0024 1B68     		ldr	r3, [r3]
 778 0026 C01A     		subs	r0, r0, r3
 394:Core/Src/main.c ****       {
 779              		.loc 1 394 10 view .LVU191
 780 0028 B0F52F7F 		cmp	r0, #700
 781 002c 0AD2     		bcs	.L49
 396:Core/Src/main.c ****         {
 782              		.loc 1 396 9 is_stmt 1 view .LVU192
 396:Core/Src/main.c ****         {
 783              		.loc 1 396 32 is_stmt 0 view .LVU193
 784 002e 314B     		ldr	r3, .L59+8
 785 0030 1B78     		ldrb	r3, [r3]	@ zero_extendqisi2
 396:Core/Src/main.c ****         {
 786              		.loc 1 396 12 view .LVU194
 787 0032 13B9     		cbnz	r3, .L50
 398:Core/Src/main.c ****         }
 788              		.loc 1 398 11 is_stmt 1 view .LVU195
 398:Core/Src/main.c ****         }
 789              		.loc 1 398 30 is_stmt 0 view .LVU196
 790 0034 2F4B     		ldr	r3, .L59+8
 791 0036 0122     		movs	r2, #1
 792 0038 1A70     		strb	r2, [r3]
 793              	.L50:
 400:Core/Src/main.c ****         break;
 794              		.loc 1 400 9 is_stmt 1 view .LVU197
 400:Core/Src/main.c ****         break;
 795              		.loc 1 400 26 is_stmt 0 view .LVU198
 796 003a FFF7FEFF 		bl	HAL_GetTick
 797              	.LVL64:
ARM GAS  /var/folders/4j/h0s8jllx34d4kvb_9k9v0kmh0000gn/T//cctne3Ma.s 			page 25


 400:Core/Src/main.c ****         break;
 798              		.loc 1 400 24 view .LVU199
 799 003e 2C4B     		ldr	r3, .L59+4
 800 0040 1860     		str	r0, [r3]
 401:Core/Src/main.c ****       }
 801              		.loc 1 401 9 is_stmt 1 view .LVU200
 802 0042 E4E7     		b	.L44
 803              	.L49:
 403:Core/Src/main.c ****       {
 804              		.loc 1 403 7 view .LVU201
 403:Core/Src/main.c ****       {
 805              		.loc 1 403 30 is_stmt 0 view .LVU202
 806 0044 2B4B     		ldr	r3, .L59+8
 807 0046 1B78     		ldrb	r3, [r3]	@ zero_extendqisi2
 403:Core/Src/main.c ****       {
 808              		.loc 1 403 10 view .LVU203
 809 0048 012B     		cmp	r3, #1
 810 004a 0AD0     		beq	.L58
 811              	.L51:
 407:Core/Src/main.c ****       generateNewNumber();
 812              		.loc 1 407 7 is_stmt 1 view .LVU204
 407:Core/Src/main.c ****       generateNewNumber();
 813              		.loc 1 407 24 is_stmt 0 view .LVU205
 814 004c FFF7FEFF 		bl	HAL_GetTick
 815              	.LVL65:
 407:Core/Src/main.c ****       generateNewNumber();
 816              		.loc 1 407 22 view .LVU206
 817 0050 274B     		ldr	r3, .L59+4
 818 0052 1860     		str	r0, [r3]
 408:Core/Src/main.c ****       lastBtnPress = HAL_GetTick();
 819              		.loc 1 408 7 is_stmt 1 view .LVU207
 820 0054 FFF7FEFF 		bl	generateNewNumber
 821              	.LVL66:
 409:Core/Src/main.c ****       break;
 822              		.loc 1 409 7 view .LVU208
 409:Core/Src/main.c ****       break;
 823              		.loc 1 409 22 is_stmt 0 view .LVU209
 824 0058 FFF7FEFF 		bl	HAL_GetTick
 825              	.LVL67:
 409:Core/Src/main.c ****       break;
 826              		.loc 1 409 20 view .LVU210
 827 005c 234B     		ldr	r3, .L59
 828 005e 1860     		str	r0, [r3]
 410:Core/Src/main.c ****     case B_DOWN_Pin:
 829              		.loc 1 410 7 is_stmt 1 view .LVU211
 830 0060 D5E7     		b	.L44
 831              	.L58:
 405:Core/Src/main.c ****       }
 832              		.loc 1 405 9 view .LVU212
 405:Core/Src/main.c ****       }
 833              		.loc 1 405 28 is_stmt 0 view .LVU213
 834 0062 244B     		ldr	r3, .L59+8
 835 0064 0022     		movs	r2, #0
 836 0066 1A70     		strb	r2, [r3]
 837 0068 F0E7     		b	.L51
 838              	.LVL68:
 839              	.L46:
ARM GAS  /var/folders/4j/h0s8jllx34d4kvb_9k9v0kmh0000gn/T//cctne3Ma.s 			page 26


 412:Core/Src/main.c ****       {
 840              		.loc 1 412 7 is_stmt 1 view .LVU214
 412:Core/Src/main.c ****       {
 841              		.loc 1 412 12 is_stmt 0 view .LVU215
 842 006a FFF7FEFF 		bl	HAL_GetTick
 843              	.LVL69:
 412:Core/Src/main.c ****       {
 844              		.loc 1 412 26 view .LVU216
 845 006e 1F4B     		ldr	r3, .L59
 846 0070 1B68     		ldr	r3, [r3]
 847 0072 C01A     		subs	r0, r0, r3
 412:Core/Src/main.c ****       {
 848              		.loc 1 412 10 view .LVU217
 849 0074 6328     		cmp	r0, #99
 850 0076 CAD9     		bls	.L44
 416:Core/Src/main.c ****       {
 851              		.loc 1 416 7 is_stmt 1 view .LVU218
 416:Core/Src/main.c ****       {
 852              		.loc 1 416 11 is_stmt 0 view .LVU219
 853 0078 1E4B     		ldr	r3, .L59+8
 854 007a 1B78     		ldrb	r3, [r3]	@ zero_extendqisi2
 416:Core/Src/main.c ****       {
 855              		.loc 1 416 10 view .LVU220
 856 007c 63B1     		cbz	r3, .L52
 418:Core/Src/main.c ****         {
 857              		.loc 1 418 9 is_stmt 1 view .LVU221
 418:Core/Src/main.c ****         {
 858              		.loc 1 418 28 is_stmt 0 view .LVU222
 859 007e 1E4B     		ldr	r3, .L59+12
 860 0080 93F90030 		ldrsb	r3, [r3]
 418:Core/Src/main.c ****         {
 861              		.loc 1 418 12 view .LVU223
 862 0084 012B     		cmp	r3, #1
 863 0086 02DD     		ble	.L53
 420:Core/Src/main.c ****         }
 864              		.loc 1 420 11 is_stmt 1 view .LVU224
 420:Core/Src/main.c ****         }
 865              		.loc 1 420 21 is_stmt 0 view .LVU225
 866 0088 013B     		subs	r3, r3, #1
 867 008a 1B4A     		ldr	r2, .L59+12
 868 008c 1370     		strb	r3, [r2]
 869              	.L53:
 428:Core/Src/main.c ****       break;
 870              		.loc 1 428 7 is_stmt 1 view .LVU226
 428:Core/Src/main.c ****       break;
 871              		.loc 1 428 22 is_stmt 0 view .LVU227
 872 008e FFF7FEFF 		bl	HAL_GetTick
 873              	.LVL70:
 428:Core/Src/main.c ****       break;
 874              		.loc 1 428 20 view .LVU228
 875 0092 164B     		ldr	r3, .L59
 876 0094 1860     		str	r0, [r3]
 429:Core/Src/main.c ****     case B_UP_Pin:
 877              		.loc 1 429 7 is_stmt 1 view .LVU229
 878 0096 BAE7     		b	.L44
 879              	.L52:
 423:Core/Src/main.c ****         {
ARM GAS  /var/folders/4j/h0s8jllx34d4kvb_9k9v0kmh0000gn/T//cctne3Ma.s 			page 27


 880              		.loc 1 423 9 view .LVU230
 423:Core/Src/main.c ****         {
 881              		.loc 1 423 26 is_stmt 0 view .LVU231
 882 0098 184B     		ldr	r3, .L59+16
 883 009a 1B88     		ldrh	r3, [r3]
 423:Core/Src/main.c ****         {
 884              		.loc 1 423 12 view .LVU232
 885 009c 40F28922 		movw	r2, #649
 886 00a0 9342     		cmp	r3, r2
 887 00a2 F4D8     		bhi	.L53
 425:Core/Src/main.c ****         }
 888              		.loc 1 425 11 is_stmt 1 view .LVU233
 425:Core/Src/main.c ****         }
 889              		.loc 1 425 24 is_stmt 0 view .LVU234
 890 00a4 3233     		adds	r3, r3, #50
 891 00a6 154A     		ldr	r2, .L59+16
 892 00a8 1380     		strh	r3, [r2]	@ movhi
 893 00aa F0E7     		b	.L53
 894              	.LVL71:
 895              	.L57:
 431:Core/Src/main.c ****       {
 896              		.loc 1 431 7 is_stmt 1 view .LVU235
 431:Core/Src/main.c ****       {
 897              		.loc 1 431 12 is_stmt 0 view .LVU236
 898 00ac FFF7FEFF 		bl	HAL_GetTick
 899              	.LVL72:
 431:Core/Src/main.c ****       {
 900              		.loc 1 431 26 view .LVU237
 901 00b0 0E4B     		ldr	r3, .L59
 902 00b2 1B68     		ldr	r3, [r3]
 903 00b4 C01A     		subs	r0, r0, r3
 431:Core/Src/main.c ****       {
 904              		.loc 1 431 10 view .LVU238
 905 00b6 6328     		cmp	r0, #99
 906 00b8 A9D9     		bls	.L44
 435:Core/Src/main.c ****       {
 907              		.loc 1 435 7 is_stmt 1 view .LVU239
 435:Core/Src/main.c ****       {
 908              		.loc 1 435 11 is_stmt 0 view .LVU240
 909 00ba 0E4B     		ldr	r3, .L59+8
 910 00bc 1B78     		ldrb	r3, [r3]	@ zero_extendqisi2
 435:Core/Src/main.c ****       {
 911              		.loc 1 435 10 view .LVU241
 912 00be 63B1     		cbz	r3, .L54
 437:Core/Src/main.c ****         {
 913              		.loc 1 437 9 is_stmt 1 view .LVU242
 437:Core/Src/main.c ****         {
 914              		.loc 1 437 28 is_stmt 0 view .LVU243
 915 00c0 0D4B     		ldr	r3, .L59+12
 916 00c2 93F90030 		ldrsb	r3, [r3]
 437:Core/Src/main.c ****         {
 917              		.loc 1 437 12 view .LVU244
 918 00c6 0E2B     		cmp	r3, #14
 919 00c8 02DC     		bgt	.L55
 439:Core/Src/main.c ****         }
 920              		.loc 1 439 11 is_stmt 1 view .LVU245
 439:Core/Src/main.c ****         }
ARM GAS  /var/folders/4j/h0s8jllx34d4kvb_9k9v0kmh0000gn/T//cctne3Ma.s 			page 28


 921              		.loc 1 439 21 is_stmt 0 view .LVU246
 922 00ca 0133     		adds	r3, r3, #1
 923 00cc 0A4A     		ldr	r2, .L59+12
 924 00ce 1370     		strb	r3, [r2]
 925              	.L55:
 447:Core/Src/main.c ****       break;
 926              		.loc 1 447 7 is_stmt 1 view .LVU247
 447:Core/Src/main.c ****       break;
 927              		.loc 1 447 22 is_stmt 0 view .LVU248
 928 00d0 FFF7FEFF 		bl	HAL_GetTick
 929              	.LVL73:
 447:Core/Src/main.c ****       break;
 930              		.loc 1 447 20 view .LVU249
 931 00d4 054B     		ldr	r3, .L59
 932 00d6 1860     		str	r0, [r3]
 448:Core/Src/main.c ****   }
 933              		.loc 1 448 7 is_stmt 1 view .LVU250
 934 00d8 99E7     		b	.L44
 935              	.L54:
 442:Core/Src/main.c ****         {
 936              		.loc 1 442 9 view .LVU251
 442:Core/Src/main.c ****         {
 937              		.loc 1 442 26 is_stmt 0 view .LVU252
 938 00da 084B     		ldr	r3, .L59+16
 939 00dc 1B88     		ldrh	r3, [r3]
 442:Core/Src/main.c ****         {
 940              		.loc 1 442 12 view .LVU253
 941 00de 962B     		cmp	r3, #150
 942 00e0 F6D9     		bls	.L55
 444:Core/Src/main.c ****         }
 943              		.loc 1 444 11 is_stmt 1 view .LVU254
 444:Core/Src/main.c ****         }
 944              		.loc 1 444 24 is_stmt 0 view .LVU255
 945 00e2 323B     		subs	r3, r3, #50
 946 00e4 054A     		ldr	r2, .L59+16
 947 00e6 1380     		strh	r3, [r2]	@ movhi
 948 00e8 F2E7     		b	.L55
 949              	.L60:
 950 00ea 00BF     		.align	2
 951              	.L59:
 952 00ec 00000000 		.word	.LANCHOR8
 953 00f0 00000000 		.word	.LANCHOR9
 954 00f4 00000000 		.word	.LANCHOR10
 955 00f8 00000000 		.word	.LANCHOR0
 956 00fc 00000000 		.word	.LANCHOR11
 957              		.cfi_endproc
 958              	.LFE70:
 960              		.section	.text.drawClearDisplay,"ax",%progbits
 961              		.align	1
 962              		.global	drawClearDisplay
 963              		.syntax unified
 964              		.thumb
 965              		.thumb_func
 967              	drawClearDisplay:
 968              	.LFB78:
 533:Core/Src/main.c **** 
 534:Core/Src/main.c **** uint32_t animationStart = 0;
ARM GAS  /var/folders/4j/h0s8jllx34d4kvb_9k9v0kmh0000gn/T//cctne3Ma.s 			page 29


 535:Core/Src/main.c **** void animateLeds()
 536:Core/Src/main.c **** {
 537:Core/Src/main.c ****   drawClearDisplay();
 538:Core/Src/main.c ****   if (isGenerating)
 539:Core/Src/main.c ****   {
 540:Core/Src/main.c ****     HAL_GPIO_WritePin(LD1_GPIO_Port, LD1_Pin, GPIO_PIN_SET);
 541:Core/Src/main.c ****     HAL_GPIO_WritePin(LD2_GPIO_Port, LD2_Pin, GPIO_PIN_SET);
 542:Core/Src/main.c ****     HAL_GPIO_WritePin(LD3_GPIO_Port, LD3_Pin, GPIO_PIN_SET);
 543:Core/Src/main.c ****     HAL_GPIO_WritePin(LD4_GPIO_Port, LD4_Pin, GPIO_PIN_SET);
 544:Core/Src/main.c **** 
 545:Core/Src/main.c ****     if (animationStart == 0)
 546:Core/Src/main.c ****       animationStart = HAL_GetTick();
 547:Core/Src/main.c **** 
 548:Core/Src/main.c ****     if (HAL_GetTick() - animationStart > 200)
 549:Core/Src/main.c ****       HAL_GPIO_WritePin(LD1_GPIO_Port, LD1_Pin, GPIO_PIN_RESET);
 550:Core/Src/main.c **** 
 551:Core/Src/main.c ****     if (HAL_GetTick() - animationStart > 400)
 552:Core/Src/main.c ****       HAL_GPIO_WritePin(LD2_GPIO_Port, LD2_Pin, GPIO_PIN_RESET);
 553:Core/Src/main.c **** 
 554:Core/Src/main.c ****     if (HAL_GetTick() - animationStart > 600)
 555:Core/Src/main.c ****       HAL_GPIO_WritePin(LD3_GPIO_Port, LD3_Pin, GPIO_PIN_RESET);
 556:Core/Src/main.c **** 
 557:Core/Src/main.c ****     if (HAL_GetTick() - animationStart > 800)
 558:Core/Src/main.c ****     {
 559:Core/Src/main.c ****       HAL_GPIO_WritePin(LD4_GPIO_Port, LD4_Pin, GPIO_PIN_RESET);
 560:Core/Src/main.c ****     }
 561:Core/Src/main.c **** 
 562:Core/Src/main.c ****     if (HAL_GetTick() - animationStart > 1200)
 563:Core/Src/main.c ****     {
 564:Core/Src/main.c ****       isGenerating = 0;
 565:Core/Src/main.c ****       animationStart = 0;
 566:Core/Src/main.c ****     }
 567:Core/Src/main.c ****   }
 568:Core/Src/main.c **** }
 569:Core/Src/main.c **** 
 570:Core/Src/main.c **** void drawClearDisplay()
 571:Core/Src/main.c **** {
 969              		.loc 1 571 1 is_stmt 1 view -0
 970              		.cfi_startproc
 971              		@ args = 0, pretend = 0, frame = 0
 972              		@ frame_needed = 0, uses_anonymous_args = 0
 973 0000 08B5     		push	{r3, lr}
 974              	.LCFI9:
 975              		.cfi_def_cfa_offset 8
 976              		.cfi_offset 3, -8
 977              		.cfi_offset 14, -4
 572:Core/Src/main.c ****   writeNumberToDisplay(SMB_NONE, SEGMENTS[0]);
 978              		.loc 1 572 3 view .LVU257
 979 0002 8F21     		movs	r1, #143
 980 0004 FF20     		movs	r0, #255
 981 0006 FFF7FEFF 		bl	writeNumberToDisplay
 982              	.LVL74:
 573:Core/Src/main.c ****   writeNumberToDisplay(SMB_NONE, SEGMENTS[1]);
 983              		.loc 1 573 3 view .LVU258
 984 000a 4F21     		movs	r1, #79
 985 000c FF20     		movs	r0, #255
 986 000e FFF7FEFF 		bl	writeNumberToDisplay
ARM GAS  /var/folders/4j/h0s8jllx34d4kvb_9k9v0kmh0000gn/T//cctne3Ma.s 			page 30


 987              	.LVL75:
 574:Core/Src/main.c ****   writeNumberToDisplay(SMB_NONE, SEGMENTS[2]);
 988              		.loc 1 574 3 view .LVU259
 989 0012 2021     		movs	r1, #32
 990 0014 FF20     		movs	r0, #255
 991 0016 FFF7FEFF 		bl	writeNumberToDisplay
 992              	.LVL76:
 575:Core/Src/main.c ****   writeNumberToDisplay(SMB_NONE, SEGMENTS[3]);
 993              		.loc 1 575 3 view .LVU260
 994 001a 1021     		movs	r1, #16
 995 001c FF20     		movs	r0, #255
 996 001e FFF7FEFF 		bl	writeNumberToDisplay
 997              	.LVL77:
 576:Core/Src/main.c **** }
 998              		.loc 1 576 1 is_stmt 0 view .LVU261
 999 0022 08BD     		pop	{r3, pc}
 1000              		.cfi_endproc
 1001              	.LFE78:
 1003              		.section	.text.animateLeds,"ax",%progbits
 1004              		.align	1
 1005              		.global	animateLeds
 1006              		.syntax unified
 1007              		.thumb
 1008              		.thumb_func
 1010              	animateLeds:
 1011              	.LFB77:
 536:Core/Src/main.c ****   drawClearDisplay();
 1012              		.loc 1 536 1 is_stmt 1 view -0
 1013              		.cfi_startproc
 1014              		@ args = 0, pretend = 0, frame = 0
 1015              		@ frame_needed = 0, uses_anonymous_args = 0
 1016 0000 10B5     		push	{r4, lr}
 1017              	.LCFI10:
 1018              		.cfi_def_cfa_offset 8
 1019              		.cfi_offset 4, -8
 1020              		.cfi_offset 14, -4
 537:Core/Src/main.c ****   if (isGenerating)
 1021              		.loc 1 537 3 view .LVU263
 1022 0002 FFF7FEFF 		bl	drawClearDisplay
 1023              	.LVL78:
 538:Core/Src/main.c ****   {
 1024              		.loc 1 538 3 view .LVU264
 538:Core/Src/main.c ****   {
 1025              		.loc 1 538 7 is_stmt 0 view .LVU265
 1026 0006 334B     		ldr	r3, .L77
 1027 0008 1B78     		ldrb	r3, [r3]	@ zero_extendqisi2
 538:Core/Src/main.c ****   {
 1028              		.loc 1 538 6 view .LVU266
 1029 000a 03B9     		cbnz	r3, .L71
 1030              	.L63:
 568:Core/Src/main.c **** 
 1031              		.loc 1 568 1 view .LVU267
 1032 000c 10BD     		pop	{r4, pc}
 1033              	.L71:
 540:Core/Src/main.c ****     HAL_GPIO_WritePin(LD2_GPIO_Port, LD2_Pin, GPIO_PIN_SET);
 1034              		.loc 1 540 5 is_stmt 1 view .LVU268
 1035 000e 324C     		ldr	r4, .L77+4
ARM GAS  /var/folders/4j/h0s8jllx34d4kvb_9k9v0kmh0000gn/T//cctne3Ma.s 			page 31


 1036 0010 0122     		movs	r2, #1
 1037 0012 2021     		movs	r1, #32
 1038 0014 2046     		mov	r0, r4
 1039 0016 FFF7FEFF 		bl	HAL_GPIO_WritePin
 1040              	.LVL79:
 541:Core/Src/main.c ****     HAL_GPIO_WritePin(LD3_GPIO_Port, LD3_Pin, GPIO_PIN_SET);
 1041              		.loc 1 541 5 view .LVU269
 1042 001a 0122     		movs	r2, #1
 1043 001c 4021     		movs	r1, #64
 1044 001e 2046     		mov	r0, r4
 1045 0020 FFF7FEFF 		bl	HAL_GPIO_WritePin
 1046              	.LVL80:
 542:Core/Src/main.c ****     HAL_GPIO_WritePin(LD4_GPIO_Port, LD4_Pin, GPIO_PIN_SET);
 1047              		.loc 1 542 5 view .LVU270
 1048 0024 0122     		movs	r2, #1
 1049 0026 8021     		movs	r1, #128
 1050 0028 2046     		mov	r0, r4
 1051 002a FFF7FEFF 		bl	HAL_GPIO_WritePin
 1052              	.LVL81:
 543:Core/Src/main.c **** 
 1053              		.loc 1 543 5 view .LVU271
 1054 002e 0122     		movs	r2, #1
 1055 0030 4021     		movs	r1, #64
 1056 0032 2A48     		ldr	r0, .L77+8
 1057 0034 FFF7FEFF 		bl	HAL_GPIO_WritePin
 1058              	.LVL82:
 545:Core/Src/main.c ****       animationStart = HAL_GetTick();
 1059              		.loc 1 545 5 view .LVU272
 545:Core/Src/main.c ****       animationStart = HAL_GetTick();
 1060              		.loc 1 545 24 is_stmt 0 view .LVU273
 1061 0038 294B     		ldr	r3, .L77+12
 1062 003a 1B68     		ldr	r3, [r3]
 545:Core/Src/main.c ****       animationStart = HAL_GetTick();
 1063              		.loc 1 545 8 view .LVU274
 1064 003c 63B3     		cbz	r3, .L72
 1065              	.L65:
 548:Core/Src/main.c ****       HAL_GPIO_WritePin(LD1_GPIO_Port, LD1_Pin, GPIO_PIN_RESET);
 1066              		.loc 1 548 5 is_stmt 1 view .LVU275
 548:Core/Src/main.c ****       HAL_GPIO_WritePin(LD1_GPIO_Port, LD1_Pin, GPIO_PIN_RESET);
 1067              		.loc 1 548 9 is_stmt 0 view .LVU276
 1068 003e FFF7FEFF 		bl	HAL_GetTick
 1069              	.LVL83:
 548:Core/Src/main.c ****       HAL_GPIO_WritePin(LD1_GPIO_Port, LD1_Pin, GPIO_PIN_RESET);
 1070              		.loc 1 548 23 view .LVU277
 1071 0042 274B     		ldr	r3, .L77+12
 1072 0044 1B68     		ldr	r3, [r3]
 1073 0046 C01A     		subs	r0, r0, r3
 548:Core/Src/main.c ****       HAL_GPIO_WritePin(LD1_GPIO_Port, LD1_Pin, GPIO_PIN_RESET);
 1074              		.loc 1 548 8 view .LVU278
 1075 0048 C828     		cmp	r0, #200
 1076 004a 2AD8     		bhi	.L73
 1077              	.L66:
 551:Core/Src/main.c ****       HAL_GPIO_WritePin(LD2_GPIO_Port, LD2_Pin, GPIO_PIN_RESET);
 1078              		.loc 1 551 5 is_stmt 1 view .LVU279
 551:Core/Src/main.c ****       HAL_GPIO_WritePin(LD2_GPIO_Port, LD2_Pin, GPIO_PIN_RESET);
 1079              		.loc 1 551 9 is_stmt 0 view .LVU280
 1080 004c FFF7FEFF 		bl	HAL_GetTick
ARM GAS  /var/folders/4j/h0s8jllx34d4kvb_9k9v0kmh0000gn/T//cctne3Ma.s 			page 32


 1081              	.LVL84:
 551:Core/Src/main.c ****       HAL_GPIO_WritePin(LD2_GPIO_Port, LD2_Pin, GPIO_PIN_RESET);
 1082              		.loc 1 551 23 view .LVU281
 1083 0050 234B     		ldr	r3, .L77+12
 1084 0052 1B68     		ldr	r3, [r3]
 1085 0054 C01A     		subs	r0, r0, r3
 551:Core/Src/main.c ****       HAL_GPIO_WritePin(LD2_GPIO_Port, LD2_Pin, GPIO_PIN_RESET);
 1086              		.loc 1 551 8 view .LVU282
 1087 0056 B0F5C87F 		cmp	r0, #400
 1088 005a 28D8     		bhi	.L74
 1089              	.L67:
 554:Core/Src/main.c ****       HAL_GPIO_WritePin(LD3_GPIO_Port, LD3_Pin, GPIO_PIN_RESET);
 1090              		.loc 1 554 5 is_stmt 1 view .LVU283
 554:Core/Src/main.c ****       HAL_GPIO_WritePin(LD3_GPIO_Port, LD3_Pin, GPIO_PIN_RESET);
 1091              		.loc 1 554 9 is_stmt 0 view .LVU284
 1092 005c FFF7FEFF 		bl	HAL_GetTick
 1093              	.LVL85:
 554:Core/Src/main.c ****       HAL_GPIO_WritePin(LD3_GPIO_Port, LD3_Pin, GPIO_PIN_RESET);
 1094              		.loc 1 554 23 view .LVU285
 1095 0060 1F4B     		ldr	r3, .L77+12
 1096 0062 1B68     		ldr	r3, [r3]
 1097 0064 C01A     		subs	r0, r0, r3
 554:Core/Src/main.c ****       HAL_GPIO_WritePin(LD3_GPIO_Port, LD3_Pin, GPIO_PIN_RESET);
 1098              		.loc 1 554 8 view .LVU286
 1099 0066 B0F5167F 		cmp	r0, #600
 1100 006a 26D8     		bhi	.L75
 1101              	.L68:
 557:Core/Src/main.c ****     {
 1102              		.loc 1 557 5 is_stmt 1 view .LVU287
 557:Core/Src/main.c ****     {
 1103              		.loc 1 557 9 is_stmt 0 view .LVU288
 1104 006c FFF7FEFF 		bl	HAL_GetTick
 1105              	.LVL86:
 557:Core/Src/main.c ****     {
 1106              		.loc 1 557 23 view .LVU289
 1107 0070 1B4B     		ldr	r3, .L77+12
 1108 0072 1B68     		ldr	r3, [r3]
 1109 0074 C01A     		subs	r0, r0, r3
 557:Core/Src/main.c ****     {
 1110              		.loc 1 557 8 view .LVU290
 1111 0076 B0F5487F 		cmp	r0, #800
 1112 007a 24D8     		bhi	.L76
 1113              	.L69:
 562:Core/Src/main.c ****     {
 1114              		.loc 1 562 5 is_stmt 1 view .LVU291
 562:Core/Src/main.c ****     {
 1115              		.loc 1 562 9 is_stmt 0 view .LVU292
 1116 007c FFF7FEFF 		bl	HAL_GetTick
 1117              	.LVL87:
 562:Core/Src/main.c ****     {
 1118              		.loc 1 562 23 view .LVU293
 1119 0080 174B     		ldr	r3, .L77+12
 1120 0082 1B68     		ldr	r3, [r3]
 1121 0084 C01A     		subs	r0, r0, r3
 562:Core/Src/main.c ****     {
 1122              		.loc 1 562 8 view .LVU294
 1123 0086 B0F5966F 		cmp	r0, #1200
ARM GAS  /var/folders/4j/h0s8jllx34d4kvb_9k9v0kmh0000gn/T//cctne3Ma.s 			page 33


 1124 008a BFD9     		bls	.L63
 564:Core/Src/main.c ****       animationStart = 0;
 1125              		.loc 1 564 7 is_stmt 1 view .LVU295
 564:Core/Src/main.c ****       animationStart = 0;
 1126              		.loc 1 564 20 is_stmt 0 view .LVU296
 1127 008c 0023     		movs	r3, #0
 1128 008e 114A     		ldr	r2, .L77
 1129 0090 1370     		strb	r3, [r2]
 565:Core/Src/main.c ****     }
 1130              		.loc 1 565 7 is_stmt 1 view .LVU297
 565:Core/Src/main.c ****     }
 1131              		.loc 1 565 22 is_stmt 0 view .LVU298
 1132 0092 134A     		ldr	r2, .L77+12
 1133 0094 1360     		str	r3, [r2]
 568:Core/Src/main.c **** 
 1134              		.loc 1 568 1 view .LVU299
 1135 0096 B9E7     		b	.L63
 1136              	.L72:
 546:Core/Src/main.c **** 
 1137              		.loc 1 546 7 is_stmt 1 view .LVU300
 546:Core/Src/main.c **** 
 1138              		.loc 1 546 24 is_stmt 0 view .LVU301
 1139 0098 FFF7FEFF 		bl	HAL_GetTick
 1140              	.LVL88:
 546:Core/Src/main.c **** 
 1141              		.loc 1 546 22 view .LVU302
 1142 009c 104B     		ldr	r3, .L77+12
 1143 009e 1860     		str	r0, [r3]
 1144 00a0 CDE7     		b	.L65
 1145              	.L73:
 549:Core/Src/main.c **** 
 1146              		.loc 1 549 7 is_stmt 1 view .LVU303
 1147 00a2 0022     		movs	r2, #0
 1148 00a4 2021     		movs	r1, #32
 1149 00a6 0C48     		ldr	r0, .L77+4
 1150 00a8 FFF7FEFF 		bl	HAL_GPIO_WritePin
 1151              	.LVL89:
 1152 00ac CEE7     		b	.L66
 1153              	.L74:
 552:Core/Src/main.c **** 
 1154              		.loc 1 552 7 view .LVU304
 1155 00ae 0022     		movs	r2, #0
 1156 00b0 4021     		movs	r1, #64
 1157 00b2 0948     		ldr	r0, .L77+4
 1158 00b4 FFF7FEFF 		bl	HAL_GPIO_WritePin
 1159              	.LVL90:
 1160 00b8 D0E7     		b	.L67
 1161              	.L75:
 555:Core/Src/main.c **** 
 1162              		.loc 1 555 7 view .LVU305
 1163 00ba 0022     		movs	r2, #0
 1164 00bc 8021     		movs	r1, #128
 1165 00be 0648     		ldr	r0, .L77+4
 1166 00c0 FFF7FEFF 		bl	HAL_GPIO_WritePin
 1167              	.LVL91:
 1168 00c4 D2E7     		b	.L68
 1169              	.L76:
ARM GAS  /var/folders/4j/h0s8jllx34d4kvb_9k9v0kmh0000gn/T//cctne3Ma.s 			page 34


 559:Core/Src/main.c ****     }
 1170              		.loc 1 559 7 view .LVU306
 1171 00c6 0022     		movs	r2, #0
 1172 00c8 4021     		movs	r1, #64
 1173 00ca 0448     		ldr	r0, .L77+8
 1174 00cc FFF7FEFF 		bl	HAL_GPIO_WritePin
 1175              	.LVL92:
 1176 00d0 D4E7     		b	.L69
 1177              	.L78:
 1178 00d2 00BF     		.align	2
 1179              	.L77:
 1180 00d4 00000000 		.word	.LANCHOR6
 1181 00d8 00080140 		.word	1073809408
 1182 00dc 000C0140 		.word	1073810432
 1183 00e0 00000000 		.word	.LANCHOR12
 1184              		.cfi_endproc
 1185              	.LFE77:
 1187              		.section	.text.Error_Handler,"ax",%progbits
 1188              		.align	1
 1189              		.global	Error_Handler
 1190              		.syntax unified
 1191              		.thumb
 1192              		.thumb_func
 1194              	Error_Handler:
 1195              	.LFB79:
 577:Core/Src/main.c **** /* USER CODE END 4 */
 578:Core/Src/main.c **** 
 579:Core/Src/main.c **** /**
 580:Core/Src/main.c ****   * @brief  This function is executed in case of error occurrence.
 581:Core/Src/main.c ****   * @retval None
 582:Core/Src/main.c ****   */
 583:Core/Src/main.c **** void Error_Handler(void)
 584:Core/Src/main.c **** {
 1196              		.loc 1 584 1 view -0
 1197              		.cfi_startproc
 1198              		@ Volatile: function does not return.
 1199              		@ args = 0, pretend = 0, frame = 0
 1200              		@ frame_needed = 0, uses_anonymous_args = 0
 1201              		@ link register save eliminated.
 585:Core/Src/main.c ****   /* USER CODE BEGIN Error_Handler_Debug */
 586:Core/Src/main.c ****   /* User can add his own implementation to report the HAL error return state */
 587:Core/Src/main.c ****   __disable_irq();
 1202              		.loc 1 587 3 view .LVU308
 1203              	.LBB12:
 1204              	.LBI12:
 1205              		.file 2 "Drivers/CMSIS/Include/cmsis_gcc.h"
   1:Drivers/CMSIS/Include/cmsis_gcc.h **** /**************************************************************************//**
   2:Drivers/CMSIS/Include/cmsis_gcc.h ****  * @file     cmsis_gcc.h
   3:Drivers/CMSIS/Include/cmsis_gcc.h ****  * @brief    CMSIS compiler GCC header file
   4:Drivers/CMSIS/Include/cmsis_gcc.h ****  * @version  V5.0.4
   5:Drivers/CMSIS/Include/cmsis_gcc.h ****  * @date     09. April 2018
   6:Drivers/CMSIS/Include/cmsis_gcc.h ****  ******************************************************************************/
   7:Drivers/CMSIS/Include/cmsis_gcc.h **** /*
   8:Drivers/CMSIS/Include/cmsis_gcc.h ****  * Copyright (c) 2009-2018 Arm Limited. All rights reserved.
   9:Drivers/CMSIS/Include/cmsis_gcc.h ****  *
  10:Drivers/CMSIS/Include/cmsis_gcc.h ****  * SPDX-License-Identifier: Apache-2.0
  11:Drivers/CMSIS/Include/cmsis_gcc.h ****  *
ARM GAS  /var/folders/4j/h0s8jllx34d4kvb_9k9v0kmh0000gn/T//cctne3Ma.s 			page 35


  12:Drivers/CMSIS/Include/cmsis_gcc.h ****  * Licensed under the Apache License, Version 2.0 (the License); you may
  13:Drivers/CMSIS/Include/cmsis_gcc.h ****  * not use this file except in compliance with the License.
  14:Drivers/CMSIS/Include/cmsis_gcc.h ****  * You may obtain a copy of the License at
  15:Drivers/CMSIS/Include/cmsis_gcc.h ****  *
  16:Drivers/CMSIS/Include/cmsis_gcc.h ****  * www.apache.org/licenses/LICENSE-2.0
  17:Drivers/CMSIS/Include/cmsis_gcc.h ****  *
  18:Drivers/CMSIS/Include/cmsis_gcc.h ****  * Unless required by applicable law or agreed to in writing, software
  19:Drivers/CMSIS/Include/cmsis_gcc.h ****  * distributed under the License is distributed on an AS IS BASIS, WITHOUT
  20:Drivers/CMSIS/Include/cmsis_gcc.h ****  * WARRANTIES OR CONDITIONS OF ANY KIND, either express or implied.
  21:Drivers/CMSIS/Include/cmsis_gcc.h ****  * See the License for the specific language governing permissions and
  22:Drivers/CMSIS/Include/cmsis_gcc.h ****  * limitations under the License.
  23:Drivers/CMSIS/Include/cmsis_gcc.h ****  */
  24:Drivers/CMSIS/Include/cmsis_gcc.h **** 
  25:Drivers/CMSIS/Include/cmsis_gcc.h **** #ifndef __CMSIS_GCC_H
  26:Drivers/CMSIS/Include/cmsis_gcc.h **** #define __CMSIS_GCC_H
  27:Drivers/CMSIS/Include/cmsis_gcc.h **** 
  28:Drivers/CMSIS/Include/cmsis_gcc.h **** /* ignore some GCC warnings */
  29:Drivers/CMSIS/Include/cmsis_gcc.h **** #pragma GCC diagnostic push
  30:Drivers/CMSIS/Include/cmsis_gcc.h **** #pragma GCC diagnostic ignored "-Wsign-conversion"
  31:Drivers/CMSIS/Include/cmsis_gcc.h **** #pragma GCC diagnostic ignored "-Wconversion"
  32:Drivers/CMSIS/Include/cmsis_gcc.h **** #pragma GCC diagnostic ignored "-Wunused-parameter"
  33:Drivers/CMSIS/Include/cmsis_gcc.h **** 
  34:Drivers/CMSIS/Include/cmsis_gcc.h **** /* Fallback for __has_builtin */
  35:Drivers/CMSIS/Include/cmsis_gcc.h **** #ifndef __has_builtin
  36:Drivers/CMSIS/Include/cmsis_gcc.h ****   #define __has_builtin(x) (0)
  37:Drivers/CMSIS/Include/cmsis_gcc.h **** #endif
  38:Drivers/CMSIS/Include/cmsis_gcc.h **** 
  39:Drivers/CMSIS/Include/cmsis_gcc.h **** /* CMSIS compiler specific defines */
  40:Drivers/CMSIS/Include/cmsis_gcc.h **** #ifndef   __ASM
  41:Drivers/CMSIS/Include/cmsis_gcc.h ****   #define __ASM                                  __asm
  42:Drivers/CMSIS/Include/cmsis_gcc.h **** #endif
  43:Drivers/CMSIS/Include/cmsis_gcc.h **** #ifndef   __INLINE
  44:Drivers/CMSIS/Include/cmsis_gcc.h ****   #define __INLINE                               inline
  45:Drivers/CMSIS/Include/cmsis_gcc.h **** #endif
  46:Drivers/CMSIS/Include/cmsis_gcc.h **** #ifndef   __STATIC_INLINE
  47:Drivers/CMSIS/Include/cmsis_gcc.h ****   #define __STATIC_INLINE                        static inline
  48:Drivers/CMSIS/Include/cmsis_gcc.h **** #endif
  49:Drivers/CMSIS/Include/cmsis_gcc.h **** #ifndef   __STATIC_FORCEINLINE                 
  50:Drivers/CMSIS/Include/cmsis_gcc.h ****   #define __STATIC_FORCEINLINE                   __attribute__((always_inline)) static inline
  51:Drivers/CMSIS/Include/cmsis_gcc.h **** #endif                                           
  52:Drivers/CMSIS/Include/cmsis_gcc.h **** #ifndef   __NO_RETURN
  53:Drivers/CMSIS/Include/cmsis_gcc.h ****   #define __NO_RETURN                            __attribute__((__noreturn__))
  54:Drivers/CMSIS/Include/cmsis_gcc.h **** #endif
  55:Drivers/CMSIS/Include/cmsis_gcc.h **** #ifndef   __USED
  56:Drivers/CMSIS/Include/cmsis_gcc.h ****   #define __USED                                 __attribute__((used))
  57:Drivers/CMSIS/Include/cmsis_gcc.h **** #endif
  58:Drivers/CMSIS/Include/cmsis_gcc.h **** #ifndef   __WEAK
  59:Drivers/CMSIS/Include/cmsis_gcc.h ****   #define __WEAK                                 __attribute__((weak))
  60:Drivers/CMSIS/Include/cmsis_gcc.h **** #endif
  61:Drivers/CMSIS/Include/cmsis_gcc.h **** #ifndef   __PACKED
  62:Drivers/CMSIS/Include/cmsis_gcc.h ****   #define __PACKED                               __attribute__((packed, aligned(1)))
  63:Drivers/CMSIS/Include/cmsis_gcc.h **** #endif
  64:Drivers/CMSIS/Include/cmsis_gcc.h **** #ifndef   __PACKED_STRUCT
  65:Drivers/CMSIS/Include/cmsis_gcc.h ****   #define __PACKED_STRUCT                        struct __attribute__((packed, aligned(1)))
  66:Drivers/CMSIS/Include/cmsis_gcc.h **** #endif
  67:Drivers/CMSIS/Include/cmsis_gcc.h **** #ifndef   __PACKED_UNION
  68:Drivers/CMSIS/Include/cmsis_gcc.h ****   #define __PACKED_UNION                         union __attribute__((packed, aligned(1)))
ARM GAS  /var/folders/4j/h0s8jllx34d4kvb_9k9v0kmh0000gn/T//cctne3Ma.s 			page 36


  69:Drivers/CMSIS/Include/cmsis_gcc.h **** #endif
  70:Drivers/CMSIS/Include/cmsis_gcc.h **** #ifndef   __UNALIGNED_UINT32        /* deprecated */
  71:Drivers/CMSIS/Include/cmsis_gcc.h ****   #pragma GCC diagnostic push
  72:Drivers/CMSIS/Include/cmsis_gcc.h ****   #pragma GCC diagnostic ignored "-Wpacked"
  73:Drivers/CMSIS/Include/cmsis_gcc.h ****   #pragma GCC diagnostic ignored "-Wattributes"
  74:Drivers/CMSIS/Include/cmsis_gcc.h ****   struct __attribute__((packed)) T_UINT32 { uint32_t v; };
  75:Drivers/CMSIS/Include/cmsis_gcc.h ****   #pragma GCC diagnostic pop
  76:Drivers/CMSIS/Include/cmsis_gcc.h ****   #define __UNALIGNED_UINT32(x)                  (((struct T_UINT32 *)(x))->v)
  77:Drivers/CMSIS/Include/cmsis_gcc.h **** #endif
  78:Drivers/CMSIS/Include/cmsis_gcc.h **** #ifndef   __UNALIGNED_UINT16_WRITE
  79:Drivers/CMSIS/Include/cmsis_gcc.h ****   #pragma GCC diagnostic push
  80:Drivers/CMSIS/Include/cmsis_gcc.h ****   #pragma GCC diagnostic ignored "-Wpacked"
  81:Drivers/CMSIS/Include/cmsis_gcc.h ****   #pragma GCC diagnostic ignored "-Wattributes"
  82:Drivers/CMSIS/Include/cmsis_gcc.h ****   __PACKED_STRUCT T_UINT16_WRITE { uint16_t v; };
  83:Drivers/CMSIS/Include/cmsis_gcc.h ****   #pragma GCC diagnostic pop
  84:Drivers/CMSIS/Include/cmsis_gcc.h ****   #define __UNALIGNED_UINT16_WRITE(addr, val)    (void)((((struct T_UINT16_WRITE *)(void *)(addr))-
  85:Drivers/CMSIS/Include/cmsis_gcc.h **** #endif
  86:Drivers/CMSIS/Include/cmsis_gcc.h **** #ifndef   __UNALIGNED_UINT16_READ
  87:Drivers/CMSIS/Include/cmsis_gcc.h ****   #pragma GCC diagnostic push
  88:Drivers/CMSIS/Include/cmsis_gcc.h ****   #pragma GCC diagnostic ignored "-Wpacked"
  89:Drivers/CMSIS/Include/cmsis_gcc.h ****   #pragma GCC diagnostic ignored "-Wattributes"
  90:Drivers/CMSIS/Include/cmsis_gcc.h ****   __PACKED_STRUCT T_UINT16_READ { uint16_t v; };
  91:Drivers/CMSIS/Include/cmsis_gcc.h ****   #pragma GCC diagnostic pop
  92:Drivers/CMSIS/Include/cmsis_gcc.h ****   #define __UNALIGNED_UINT16_READ(addr)          (((const struct T_UINT16_READ *)(const void *)(add
  93:Drivers/CMSIS/Include/cmsis_gcc.h **** #endif
  94:Drivers/CMSIS/Include/cmsis_gcc.h **** #ifndef   __UNALIGNED_UINT32_WRITE
  95:Drivers/CMSIS/Include/cmsis_gcc.h ****   #pragma GCC diagnostic push
  96:Drivers/CMSIS/Include/cmsis_gcc.h ****   #pragma GCC diagnostic ignored "-Wpacked"
  97:Drivers/CMSIS/Include/cmsis_gcc.h ****   #pragma GCC diagnostic ignored "-Wattributes"
  98:Drivers/CMSIS/Include/cmsis_gcc.h ****   __PACKED_STRUCT T_UINT32_WRITE { uint32_t v; };
  99:Drivers/CMSIS/Include/cmsis_gcc.h ****   #pragma GCC diagnostic pop
 100:Drivers/CMSIS/Include/cmsis_gcc.h ****   #define __UNALIGNED_UINT32_WRITE(addr, val)    (void)((((struct T_UINT32_WRITE *)(void *)(addr))-
 101:Drivers/CMSIS/Include/cmsis_gcc.h **** #endif
 102:Drivers/CMSIS/Include/cmsis_gcc.h **** #ifndef   __UNALIGNED_UINT32_READ
 103:Drivers/CMSIS/Include/cmsis_gcc.h ****   #pragma GCC diagnostic push
 104:Drivers/CMSIS/Include/cmsis_gcc.h ****   #pragma GCC diagnostic ignored "-Wpacked"
 105:Drivers/CMSIS/Include/cmsis_gcc.h ****   #pragma GCC diagnostic ignored "-Wattributes"
 106:Drivers/CMSIS/Include/cmsis_gcc.h ****   __PACKED_STRUCT T_UINT32_READ { uint32_t v; };
 107:Drivers/CMSIS/Include/cmsis_gcc.h ****   #pragma GCC diagnostic pop
 108:Drivers/CMSIS/Include/cmsis_gcc.h ****   #define __UNALIGNED_UINT32_READ(addr)          (((const struct T_UINT32_READ *)(const void *)(add
 109:Drivers/CMSIS/Include/cmsis_gcc.h **** #endif
 110:Drivers/CMSIS/Include/cmsis_gcc.h **** #ifndef   __ALIGNED
 111:Drivers/CMSIS/Include/cmsis_gcc.h ****   #define __ALIGNED(x)                           __attribute__((aligned(x)))
 112:Drivers/CMSIS/Include/cmsis_gcc.h **** #endif
 113:Drivers/CMSIS/Include/cmsis_gcc.h **** #ifndef   __RESTRICT
 114:Drivers/CMSIS/Include/cmsis_gcc.h ****   #define __RESTRICT                             __restrict
 115:Drivers/CMSIS/Include/cmsis_gcc.h **** #endif
 116:Drivers/CMSIS/Include/cmsis_gcc.h **** 
 117:Drivers/CMSIS/Include/cmsis_gcc.h **** 
 118:Drivers/CMSIS/Include/cmsis_gcc.h **** /* ###########################  Core Function Access  ########################### */
 119:Drivers/CMSIS/Include/cmsis_gcc.h **** /** \ingroup  CMSIS_Core_FunctionInterface
 120:Drivers/CMSIS/Include/cmsis_gcc.h ****     \defgroup CMSIS_Core_RegAccFunctions CMSIS Core Register Access Functions
 121:Drivers/CMSIS/Include/cmsis_gcc.h ****   @{
 122:Drivers/CMSIS/Include/cmsis_gcc.h ****  */
 123:Drivers/CMSIS/Include/cmsis_gcc.h **** 
 124:Drivers/CMSIS/Include/cmsis_gcc.h **** /**
 125:Drivers/CMSIS/Include/cmsis_gcc.h ****   \brief   Enable IRQ Interrupts
ARM GAS  /var/folders/4j/h0s8jllx34d4kvb_9k9v0kmh0000gn/T//cctne3Ma.s 			page 37


 126:Drivers/CMSIS/Include/cmsis_gcc.h ****   \details Enables IRQ interrupts by clearing the I-bit in the CPSR.
 127:Drivers/CMSIS/Include/cmsis_gcc.h ****            Can only be executed in Privileged modes.
 128:Drivers/CMSIS/Include/cmsis_gcc.h ****  */
 129:Drivers/CMSIS/Include/cmsis_gcc.h **** __STATIC_FORCEINLINE void __enable_irq(void)
 130:Drivers/CMSIS/Include/cmsis_gcc.h **** {
 131:Drivers/CMSIS/Include/cmsis_gcc.h ****   __ASM volatile ("cpsie i" : : : "memory");
 132:Drivers/CMSIS/Include/cmsis_gcc.h **** }
 133:Drivers/CMSIS/Include/cmsis_gcc.h **** 
 134:Drivers/CMSIS/Include/cmsis_gcc.h **** 
 135:Drivers/CMSIS/Include/cmsis_gcc.h **** /**
 136:Drivers/CMSIS/Include/cmsis_gcc.h ****   \brief   Disable IRQ Interrupts
 137:Drivers/CMSIS/Include/cmsis_gcc.h ****   \details Disables IRQ interrupts by setting the I-bit in the CPSR.
 138:Drivers/CMSIS/Include/cmsis_gcc.h ****            Can only be executed in Privileged modes.
 139:Drivers/CMSIS/Include/cmsis_gcc.h ****  */
 140:Drivers/CMSIS/Include/cmsis_gcc.h **** __STATIC_FORCEINLINE void __disable_irq(void)
 1206              		.loc 2 140 27 view .LVU309
 1207              	.LBB13:
 141:Drivers/CMSIS/Include/cmsis_gcc.h **** {
 142:Drivers/CMSIS/Include/cmsis_gcc.h ****   __ASM volatile ("cpsid i" : : : "memory");
 1208              		.loc 2 142 3 view .LVU310
 1209              		.syntax unified
 1210              	@ 142 "Drivers/CMSIS/Include/cmsis_gcc.h" 1
 1211 0000 72B6     		cpsid i
 1212              	@ 0 "" 2
 1213              		.thumb
 1214              		.syntax unified
 1215              	.L80:
 1216              	.LBE13:
 1217              	.LBE12:
 588:Core/Src/main.c ****   while (1)
 1218              		.loc 1 588 3 discriminator 1 view .LVU311
 589:Core/Src/main.c ****   {
 590:Core/Src/main.c ****   }
 1219              		.loc 1 590 3 discriminator 1 view .LVU312
 588:Core/Src/main.c ****   while (1)
 1220              		.loc 1 588 9 discriminator 1 view .LVU313
 1221 0002 FEE7     		b	.L80
 1222              		.cfi_endproc
 1223              	.LFE79:
 1225              		.section	.text.MX_USART2_UART_Init,"ax",%progbits
 1226              		.align	1
 1227              		.syntax unified
 1228              		.thumb
 1229              		.thumb_func
 1231              	MX_USART2_UART_Init:
 1232              	.LFB68:
 283:Core/Src/main.c **** 
 1233              		.loc 1 283 1 view -0
 1234              		.cfi_startproc
 1235              		@ args = 0, pretend = 0, frame = 0
 1236              		@ frame_needed = 0, uses_anonymous_args = 0
 1237 0000 08B5     		push	{r3, lr}
 1238              	.LCFI11:
 1239              		.cfi_def_cfa_offset 8
 1240              		.cfi_offset 3, -8
 1241              		.cfi_offset 14, -4
 292:Core/Src/main.c ****   huart2.Init.BaudRate = 115200;
ARM GAS  /var/folders/4j/h0s8jllx34d4kvb_9k9v0kmh0000gn/T//cctne3Ma.s 			page 38


 1242              		.loc 1 292 3 view .LVU315
 292:Core/Src/main.c ****   huart2.Init.BaudRate = 115200;
 1243              		.loc 1 292 19 is_stmt 0 view .LVU316
 1244 0002 0A48     		ldr	r0, .L85
 1245 0004 0A4B     		ldr	r3, .L85+4
 1246 0006 0360     		str	r3, [r0]
 293:Core/Src/main.c ****   huart2.Init.WordLength = UART_WORDLENGTH_8B;
 1247              		.loc 1 293 3 is_stmt 1 view .LVU317
 293:Core/Src/main.c ****   huart2.Init.WordLength = UART_WORDLENGTH_8B;
 1248              		.loc 1 293 24 is_stmt 0 view .LVU318
 1249 0008 4FF4E133 		mov	r3, #115200
 1250 000c 4360     		str	r3, [r0, #4]
 294:Core/Src/main.c ****   huart2.Init.StopBits = UART_STOPBITS_1;
 1251              		.loc 1 294 3 is_stmt 1 view .LVU319
 294:Core/Src/main.c ****   huart2.Init.StopBits = UART_STOPBITS_1;
 1252              		.loc 1 294 26 is_stmt 0 view .LVU320
 1253 000e 0023     		movs	r3, #0
 1254 0010 8360     		str	r3, [r0, #8]
 295:Core/Src/main.c ****   huart2.Init.Parity = UART_PARITY_NONE;
 1255              		.loc 1 295 3 is_stmt 1 view .LVU321
 295:Core/Src/main.c ****   huart2.Init.Parity = UART_PARITY_NONE;
 1256              		.loc 1 295 24 is_stmt 0 view .LVU322
 1257 0012 C360     		str	r3, [r0, #12]
 296:Core/Src/main.c ****   huart2.Init.Mode = UART_MODE_TX_RX;
 1258              		.loc 1 296 3 is_stmt 1 view .LVU323
 296:Core/Src/main.c ****   huart2.Init.Mode = UART_MODE_TX_RX;
 1259              		.loc 1 296 22 is_stmt 0 view .LVU324
 1260 0014 0361     		str	r3, [r0, #16]
 297:Core/Src/main.c ****   huart2.Init.HwFlowCtl = UART_HWCONTROL_NONE;
 1261              		.loc 1 297 3 is_stmt 1 view .LVU325
 297:Core/Src/main.c ****   huart2.Init.HwFlowCtl = UART_HWCONTROL_NONE;
 1262              		.loc 1 297 20 is_stmt 0 view .LVU326
 1263 0016 0C22     		movs	r2, #12
 1264 0018 4261     		str	r2, [r0, #20]
 298:Core/Src/main.c ****   huart2.Init.OverSampling = UART_OVERSAMPLING_16;
 1265              		.loc 1 298 3 is_stmt 1 view .LVU327
 298:Core/Src/main.c ****   huart2.Init.OverSampling = UART_OVERSAMPLING_16;
 1266              		.loc 1 298 25 is_stmt 0 view .LVU328
 1267 001a 8361     		str	r3, [r0, #24]
 299:Core/Src/main.c ****   if (HAL_UART_Init(&huart2) != HAL_OK)
 1268              		.loc 1 299 3 is_stmt 1 view .LVU329
 299:Core/Src/main.c ****   if (HAL_UART_Init(&huart2) != HAL_OK)
 1269              		.loc 1 299 28 is_stmt 0 view .LVU330
 1270 001c C361     		str	r3, [r0, #28]
 300:Core/Src/main.c ****   {
 1271              		.loc 1 300 3 is_stmt 1 view .LVU331
 300:Core/Src/main.c ****   {
 1272              		.loc 1 300 7 is_stmt 0 view .LVU332
 1273 001e FFF7FEFF 		bl	HAL_UART_Init
 1274              	.LVL93:
 300:Core/Src/main.c ****   {
 1275              		.loc 1 300 6 view .LVU333
 1276 0022 00B9     		cbnz	r0, .L84
 308:Core/Src/main.c **** 
 1277              		.loc 1 308 1 view .LVU334
 1278 0024 08BD     		pop	{r3, pc}
 1279              	.L84:
ARM GAS  /var/folders/4j/h0s8jllx34d4kvb_9k9v0kmh0000gn/T//cctne3Ma.s 			page 39


 302:Core/Src/main.c ****   }
 1280              		.loc 1 302 5 is_stmt 1 view .LVU335
 1281 0026 FFF7FEFF 		bl	Error_Handler
 1282              	.LVL94:
 1283              	.L86:
 1284 002a 00BF     		.align	2
 1285              	.L85:
 1286 002c 00000000 		.word	.LANCHOR13
 1287 0030 00440040 		.word	1073759232
 1288              		.cfi_endproc
 1289              	.LFE68:
 1291              		.section	.text.MX_TIM1_Init,"ax",%progbits
 1292              		.align	1
 1293              		.syntax unified
 1294              		.thumb
 1295              		.thumb_func
 1297              	MX_TIM1_Init:
 1298              	.LFB67:
 230:Core/Src/main.c **** 
 1299              		.loc 1 230 1 view -0
 1300              		.cfi_startproc
 1301              		@ args = 0, pretend = 0, frame = 48
 1302              		@ frame_needed = 0, uses_anonymous_args = 0
 1303 0000 00B5     		push	{lr}
 1304              	.LCFI12:
 1305              		.cfi_def_cfa_offset 4
 1306              		.cfi_offset 14, -4
 1307 0002 8DB0     		sub	sp, sp, #52
 1308              	.LCFI13:
 1309              		.cfi_def_cfa_offset 56
 236:Core/Src/main.c ****   TIM_SlaveConfigTypeDef sSlaveConfig = {0};
 1310              		.loc 1 236 3 view .LVU337
 236:Core/Src/main.c ****   TIM_SlaveConfigTypeDef sSlaveConfig = {0};
 1311              		.loc 1 236 26 is_stmt 0 view .LVU338
 1312 0004 0023     		movs	r3, #0
 1313 0006 0893     		str	r3, [sp, #32]
 1314 0008 0993     		str	r3, [sp, #36]
 1315 000a 0A93     		str	r3, [sp, #40]
 1316 000c 0B93     		str	r3, [sp, #44]
 237:Core/Src/main.c ****   TIM_MasterConfigTypeDef sMasterConfig = {0};
 1317              		.loc 1 237 3 is_stmt 1 view .LVU339
 237:Core/Src/main.c ****   TIM_MasterConfigTypeDef sMasterConfig = {0};
 1318              		.loc 1 237 26 is_stmt 0 view .LVU340
 1319 000e 0393     		str	r3, [sp, #12]
 1320 0010 0493     		str	r3, [sp, #16]
 1321 0012 0593     		str	r3, [sp, #20]
 1322 0014 0693     		str	r3, [sp, #24]
 1323 0016 0793     		str	r3, [sp, #28]
 238:Core/Src/main.c **** 
 1324              		.loc 1 238 3 is_stmt 1 view .LVU341
 238:Core/Src/main.c **** 
 1325              		.loc 1 238 27 is_stmt 0 view .LVU342
 1326 0018 0193     		str	r3, [sp, #4]
 1327 001a 0293     		str	r3, [sp, #8]
 243:Core/Src/main.c ****   htim1.Init.Prescaler = 0;
 1328              		.loc 1 243 3 is_stmt 1 view .LVU343
 243:Core/Src/main.c ****   htim1.Init.Prescaler = 0;
ARM GAS  /var/folders/4j/h0s8jllx34d4kvb_9k9v0kmh0000gn/T//cctne3Ma.s 			page 40


 1329              		.loc 1 243 18 is_stmt 0 view .LVU344
 1330 001c 1848     		ldr	r0, .L97
 1331 001e 194A     		ldr	r2, .L97+4
 1332 0020 0260     		str	r2, [r0]
 244:Core/Src/main.c ****   htim1.Init.CounterMode = TIM_COUNTERMODE_UP;
 1333              		.loc 1 244 3 is_stmt 1 view .LVU345
 244:Core/Src/main.c ****   htim1.Init.CounterMode = TIM_COUNTERMODE_UP;
 1334              		.loc 1 244 24 is_stmt 0 view .LVU346
 1335 0022 4360     		str	r3, [r0, #4]
 245:Core/Src/main.c ****   htim1.Init.Period = 65535;
 1336              		.loc 1 245 3 is_stmt 1 view .LVU347
 245:Core/Src/main.c ****   htim1.Init.Period = 65535;
 1337              		.loc 1 245 26 is_stmt 0 view .LVU348
 1338 0024 8360     		str	r3, [r0, #8]
 246:Core/Src/main.c ****   htim1.Init.ClockDivision = TIM_CLOCKDIVISION_DIV1;
 1339              		.loc 1 246 3 is_stmt 1 view .LVU349
 246:Core/Src/main.c ****   htim1.Init.ClockDivision = TIM_CLOCKDIVISION_DIV1;
 1340              		.loc 1 246 21 is_stmt 0 view .LVU350
 1341 0026 4FF6FF72 		movw	r2, #65535
 1342 002a C260     		str	r2, [r0, #12]
 247:Core/Src/main.c ****   htim1.Init.RepetitionCounter = 0;
 1343              		.loc 1 247 3 is_stmt 1 view .LVU351
 247:Core/Src/main.c ****   htim1.Init.RepetitionCounter = 0;
 1344              		.loc 1 247 28 is_stmt 0 view .LVU352
 1345 002c 0361     		str	r3, [r0, #16]
 248:Core/Src/main.c ****   htim1.Init.AutoReloadPreload = TIM_AUTORELOAD_PRELOAD_DISABLE;
 1346              		.loc 1 248 3 is_stmt 1 view .LVU353
 248:Core/Src/main.c ****   htim1.Init.AutoReloadPreload = TIM_AUTORELOAD_PRELOAD_DISABLE;
 1347              		.loc 1 248 32 is_stmt 0 view .LVU354
 1348 002e 4361     		str	r3, [r0, #20]
 249:Core/Src/main.c ****   if (HAL_TIM_Base_Init(&htim1) != HAL_OK)
 1349              		.loc 1 249 3 is_stmt 1 view .LVU355
 249:Core/Src/main.c ****   if (HAL_TIM_Base_Init(&htim1) != HAL_OK)
 1350              		.loc 1 249 32 is_stmt 0 view .LVU356
 1351 0030 8361     		str	r3, [r0, #24]
 250:Core/Src/main.c ****   {
 1352              		.loc 1 250 3 is_stmt 1 view .LVU357
 250:Core/Src/main.c ****   {
 1353              		.loc 1 250 7 is_stmt 0 view .LVU358
 1354 0032 FFF7FEFF 		bl	HAL_TIM_Base_Init
 1355              	.LVL95:
 250:Core/Src/main.c ****   {
 1356              		.loc 1 250 6 view .LVU359
 1357 0036 D0B9     		cbnz	r0, .L93
 254:Core/Src/main.c ****   if (HAL_TIM_ConfigClockSource(&htim1, &sClockSourceConfig) != HAL_OK)
 1358              		.loc 1 254 3 is_stmt 1 view .LVU360
 254:Core/Src/main.c ****   if (HAL_TIM_ConfigClockSource(&htim1, &sClockSourceConfig) != HAL_OK)
 1359              		.loc 1 254 34 is_stmt 0 view .LVU361
 1360 0038 4FF48053 		mov	r3, #4096
 1361 003c 0893     		str	r3, [sp, #32]
 255:Core/Src/main.c ****   {
 1362              		.loc 1 255 3 is_stmt 1 view .LVU362
 255:Core/Src/main.c ****   {
 1363              		.loc 1 255 7 is_stmt 0 view .LVU363
 1364 003e 08A9     		add	r1, sp, #32
 1365 0040 0F48     		ldr	r0, .L97
 1366 0042 FFF7FEFF 		bl	HAL_TIM_ConfigClockSource
ARM GAS  /var/folders/4j/h0s8jllx34d4kvb_9k9v0kmh0000gn/T//cctne3Ma.s 			page 41


 1367              	.LVL96:
 255:Core/Src/main.c ****   {
 1368              		.loc 1 255 6 view .LVU364
 1369 0046 A0B9     		cbnz	r0, .L94
 259:Core/Src/main.c ****   sSlaveConfig.InputTrigger = TIM_TS_ITR0;
 1370              		.loc 1 259 3 is_stmt 1 view .LVU365
 259:Core/Src/main.c ****   sSlaveConfig.InputTrigger = TIM_TS_ITR0;
 1371              		.loc 1 259 26 is_stmt 0 view .LVU366
 1372 0048 0023     		movs	r3, #0
 1373 004a 0393     		str	r3, [sp, #12]
 260:Core/Src/main.c ****   if (HAL_TIM_SlaveConfigSynchro(&htim1, &sSlaveConfig) != HAL_OK)
 1374              		.loc 1 260 3 is_stmt 1 view .LVU367
 260:Core/Src/main.c ****   if (HAL_TIM_SlaveConfigSynchro(&htim1, &sSlaveConfig) != HAL_OK)
 1375              		.loc 1 260 29 is_stmt 0 view .LVU368
 1376 004c 0493     		str	r3, [sp, #16]
 261:Core/Src/main.c ****   {
 1377              		.loc 1 261 3 is_stmt 1 view .LVU369
 261:Core/Src/main.c ****   {
 1378              		.loc 1 261 7 is_stmt 0 view .LVU370
 1379 004e 03A9     		add	r1, sp, #12
 1380 0050 0B48     		ldr	r0, .L97
 1381 0052 FFF7FEFF 		bl	HAL_TIM_SlaveConfigSynchro
 1382              	.LVL97:
 261:Core/Src/main.c ****   {
 1383              		.loc 1 261 6 view .LVU371
 1384 0056 70B9     		cbnz	r0, .L95
 265:Core/Src/main.c ****   sMasterConfig.MasterSlaveMode = TIM_MASTERSLAVEMODE_DISABLE;
 1385              		.loc 1 265 3 is_stmt 1 view .LVU372
 265:Core/Src/main.c ****   sMasterConfig.MasterSlaveMode = TIM_MASTERSLAVEMODE_DISABLE;
 1386              		.loc 1 265 37 is_stmt 0 view .LVU373
 1387 0058 0023     		movs	r3, #0
 1388 005a 0193     		str	r3, [sp, #4]
 266:Core/Src/main.c ****   if (HAL_TIMEx_MasterConfigSynchronization(&htim1, &sMasterConfig) != HAL_OK)
 1389              		.loc 1 266 3 is_stmt 1 view .LVU374
 266:Core/Src/main.c ****   if (HAL_TIMEx_MasterConfigSynchronization(&htim1, &sMasterConfig) != HAL_OK)
 1390              		.loc 1 266 33 is_stmt 0 view .LVU375
 1391 005c 0293     		str	r3, [sp, #8]
 267:Core/Src/main.c ****   {
 1392              		.loc 1 267 3 is_stmt 1 view .LVU376
 267:Core/Src/main.c ****   {
 1393              		.loc 1 267 7 is_stmt 0 view .LVU377
 1394 005e 01A9     		add	r1, sp, #4
 1395 0060 0748     		ldr	r0, .L97
 1396 0062 FFF7FEFF 		bl	HAL_TIMEx_MasterConfigSynchronization
 1397              	.LVL98:
 267:Core/Src/main.c ****   {
 1398              		.loc 1 267 6 view .LVU378
 1399 0066 40B9     		cbnz	r0, .L96
 275:Core/Src/main.c **** 
 1400              		.loc 1 275 1 view .LVU379
 1401 0068 0DB0     		add	sp, sp, #52
 1402              	.LCFI14:
 1403              		.cfi_remember_state
 1404              		.cfi_def_cfa_offset 4
 1405              		@ sp needed
 1406 006a 5DF804FB 		ldr	pc, [sp], #4
 1407              	.L93:
ARM GAS  /var/folders/4j/h0s8jllx34d4kvb_9k9v0kmh0000gn/T//cctne3Ma.s 			page 42


 1408              	.LCFI15:
 1409              		.cfi_restore_state
 252:Core/Src/main.c ****   }
 1410              		.loc 1 252 5 is_stmt 1 view .LVU380
 1411 006e FFF7FEFF 		bl	Error_Handler
 1412              	.LVL99:
 1413              	.L94:
 257:Core/Src/main.c ****   }
 1414              		.loc 1 257 5 view .LVU381
 1415 0072 FFF7FEFF 		bl	Error_Handler
 1416              	.LVL100:
 1417              	.L95:
 263:Core/Src/main.c ****   }
 1418              		.loc 1 263 5 view .LVU382
 1419 0076 FFF7FEFF 		bl	Error_Handler
 1420              	.LVL101:
 1421              	.L96:
 269:Core/Src/main.c ****   }
 1422              		.loc 1 269 5 view .LVU383
 1423 007a FFF7FEFF 		bl	Error_Handler
 1424              	.LVL102:
 1425              	.L98:
 1426 007e 00BF     		.align	2
 1427              	.L97:
 1428 0080 00000000 		.word	.LANCHOR14
 1429 0084 002C0140 		.word	1073818624
 1430              		.cfi_endproc
 1431              	.LFE67:
 1433              		.section	.text.SystemClock_Config,"ax",%progbits
 1434              		.align	1
 1435              		.global	SystemClock_Config
 1436              		.syntax unified
 1437              		.thumb
 1438              		.thumb_func
 1440              	SystemClock_Config:
 1441              	.LFB66:
 191:Core/Src/main.c ****   RCC_OscInitTypeDef RCC_OscInitStruct = {0};
 1442              		.loc 1 191 1 view -0
 1443              		.cfi_startproc
 1444              		@ args = 0, pretend = 0, frame = 64
 1445              		@ frame_needed = 0, uses_anonymous_args = 0
 1446 0000 00B5     		push	{lr}
 1447              	.LCFI16:
 1448              		.cfi_def_cfa_offset 4
 1449              		.cfi_offset 14, -4
 1450 0002 91B0     		sub	sp, sp, #68
 1451              	.LCFI17:
 1452              		.cfi_def_cfa_offset 72
 192:Core/Src/main.c ****   RCC_ClkInitTypeDef RCC_ClkInitStruct = {0};
 1453              		.loc 1 192 3 view .LVU385
 192:Core/Src/main.c ****   RCC_ClkInitTypeDef RCC_ClkInitStruct = {0};
 1454              		.loc 1 192 22 is_stmt 0 view .LVU386
 1455 0004 2822     		movs	r2, #40
 1456 0006 0021     		movs	r1, #0
 1457 0008 06A8     		add	r0, sp, #24
 1458 000a FFF7FEFF 		bl	memset
 1459              	.LVL103:
ARM GAS  /var/folders/4j/h0s8jllx34d4kvb_9k9v0kmh0000gn/T//cctne3Ma.s 			page 43


 193:Core/Src/main.c **** 
 1460              		.loc 1 193 3 is_stmt 1 view .LVU387
 193:Core/Src/main.c **** 
 1461              		.loc 1 193 22 is_stmt 0 view .LVU388
 1462 000e 0023     		movs	r3, #0
 1463 0010 0193     		str	r3, [sp, #4]
 1464 0012 0293     		str	r3, [sp, #8]
 1465 0014 0393     		str	r3, [sp, #12]
 1466 0016 0493     		str	r3, [sp, #16]
 1467 0018 0593     		str	r3, [sp, #20]
 198:Core/Src/main.c ****   RCC_OscInitStruct.HSIState = RCC_HSI_ON;
 1468              		.loc 1 198 3 is_stmt 1 view .LVU389
 198:Core/Src/main.c ****   RCC_OscInitStruct.HSIState = RCC_HSI_ON;
 1469              		.loc 1 198 36 is_stmt 0 view .LVU390
 1470 001a 0223     		movs	r3, #2
 1471 001c 0693     		str	r3, [sp, #24]
 199:Core/Src/main.c ****   RCC_OscInitStruct.HSICalibrationValue = RCC_HSICALIBRATION_DEFAULT;
 1472              		.loc 1 199 3 is_stmt 1 view .LVU391
 199:Core/Src/main.c ****   RCC_OscInitStruct.HSICalibrationValue = RCC_HSICALIBRATION_DEFAULT;
 1473              		.loc 1 199 30 is_stmt 0 view .LVU392
 1474 001e 0122     		movs	r2, #1
 1475 0020 0A92     		str	r2, [sp, #40]
 200:Core/Src/main.c ****   RCC_OscInitStruct.PLL.PLLState = RCC_PLL_ON;
 1476              		.loc 1 200 3 is_stmt 1 view .LVU393
 200:Core/Src/main.c ****   RCC_OscInitStruct.PLL.PLLState = RCC_PLL_ON;
 1477              		.loc 1 200 41 is_stmt 0 view .LVU394
 1478 0022 1022     		movs	r2, #16
 1479 0024 0B92     		str	r2, [sp, #44]
 201:Core/Src/main.c ****   RCC_OscInitStruct.PLL.PLLSource = RCC_PLLSOURCE_HSI_DIV2;
 1480              		.loc 1 201 3 is_stmt 1 view .LVU395
 201:Core/Src/main.c ****   RCC_OscInitStruct.PLL.PLLSource = RCC_PLLSOURCE_HSI_DIV2;
 1481              		.loc 1 201 34 is_stmt 0 view .LVU396
 1482 0026 0D93     		str	r3, [sp, #52]
 202:Core/Src/main.c ****   RCC_OscInitStruct.PLL.PLLMUL = RCC_PLL_MUL16;
 1483              		.loc 1 202 3 is_stmt 1 view .LVU397
 203:Core/Src/main.c ****   if (HAL_RCC_OscConfig(&RCC_OscInitStruct) != HAL_OK)
 1484              		.loc 1 203 3 view .LVU398
 203:Core/Src/main.c ****   if (HAL_RCC_OscConfig(&RCC_OscInitStruct) != HAL_OK)
 1485              		.loc 1 203 32 is_stmt 0 view .LVU399
 1486 0028 4FF46013 		mov	r3, #3670016
 1487 002c 0F93     		str	r3, [sp, #60]
 204:Core/Src/main.c ****   {
 1488              		.loc 1 204 3 is_stmt 1 view .LVU400
 204:Core/Src/main.c ****   {
 1489              		.loc 1 204 7 is_stmt 0 view .LVU401
 1490 002e 06A8     		add	r0, sp, #24
 1491 0030 FFF7FEFF 		bl	HAL_RCC_OscConfig
 1492              	.LVL104:
 204:Core/Src/main.c ****   {
 1493              		.loc 1 204 6 view .LVU402
 1494 0034 80B9     		cbnz	r0, .L103
 211:Core/Src/main.c ****                               |RCC_CLOCKTYPE_PCLK1|RCC_CLOCKTYPE_PCLK2;
 1495              		.loc 1 211 3 is_stmt 1 view .LVU403
 211:Core/Src/main.c ****                               |RCC_CLOCKTYPE_PCLK1|RCC_CLOCKTYPE_PCLK2;
 1496              		.loc 1 211 31 is_stmt 0 view .LVU404
 1497 0036 0F23     		movs	r3, #15
 1498 0038 0193     		str	r3, [sp, #4]
ARM GAS  /var/folders/4j/h0s8jllx34d4kvb_9k9v0kmh0000gn/T//cctne3Ma.s 			page 44


 213:Core/Src/main.c ****   RCC_ClkInitStruct.AHBCLKDivider = RCC_SYSCLK_DIV1;
 1499              		.loc 1 213 3 is_stmt 1 view .LVU405
 213:Core/Src/main.c ****   RCC_ClkInitStruct.AHBCLKDivider = RCC_SYSCLK_DIV1;
 1500              		.loc 1 213 34 is_stmt 0 view .LVU406
 1501 003a 0221     		movs	r1, #2
 1502 003c 0291     		str	r1, [sp, #8]
 214:Core/Src/main.c ****   RCC_ClkInitStruct.APB1CLKDivider = RCC_HCLK_DIV2;
 1503              		.loc 1 214 3 is_stmt 1 view .LVU407
 214:Core/Src/main.c ****   RCC_ClkInitStruct.APB1CLKDivider = RCC_HCLK_DIV2;
 1504              		.loc 1 214 35 is_stmt 0 view .LVU408
 1505 003e 0023     		movs	r3, #0
 1506 0040 0393     		str	r3, [sp, #12]
 215:Core/Src/main.c ****   RCC_ClkInitStruct.APB2CLKDivider = RCC_HCLK_DIV1;
 1507              		.loc 1 215 3 is_stmt 1 view .LVU409
 215:Core/Src/main.c ****   RCC_ClkInitStruct.APB2CLKDivider = RCC_HCLK_DIV1;
 1508              		.loc 1 215 36 is_stmt 0 view .LVU410
 1509 0042 4FF48062 		mov	r2, #1024
 1510 0046 0492     		str	r2, [sp, #16]
 216:Core/Src/main.c **** 
 1511              		.loc 1 216 3 is_stmt 1 view .LVU411
 216:Core/Src/main.c **** 
 1512              		.loc 1 216 36 is_stmt 0 view .LVU412
 1513 0048 0593     		str	r3, [sp, #20]
 218:Core/Src/main.c ****   {
 1514              		.loc 1 218 3 is_stmt 1 view .LVU413
 218:Core/Src/main.c ****   {
 1515              		.loc 1 218 7 is_stmt 0 view .LVU414
 1516 004a 01A8     		add	r0, sp, #4
 1517 004c FFF7FEFF 		bl	HAL_RCC_ClockConfig
 1518              	.LVL105:
 218:Core/Src/main.c ****   {
 1519              		.loc 1 218 6 view .LVU415
 1520 0050 20B9     		cbnz	r0, .L104
 222:Core/Src/main.c **** 
 1521              		.loc 1 222 1 view .LVU416
 1522 0052 11B0     		add	sp, sp, #68
 1523              	.LCFI18:
 1524              		.cfi_remember_state
 1525              		.cfi_def_cfa_offset 4
 1526              		@ sp needed
 1527 0054 5DF804FB 		ldr	pc, [sp], #4
 1528              	.L103:
 1529              	.LCFI19:
 1530              		.cfi_restore_state
 206:Core/Src/main.c ****   }
 1531              		.loc 1 206 5 is_stmt 1 view .LVU417
 1532 0058 FFF7FEFF 		bl	Error_Handler
 1533              	.LVL106:
 1534              	.L104:
 220:Core/Src/main.c ****   }
 1535              		.loc 1 220 5 view .LVU418
 1536 005c FFF7FEFF 		bl	Error_Handler
 1537              	.LVL107:
 1538              		.cfi_endproc
 1539              	.LFE66:
 1541              		.section	.text.main,"ax",%progbits
 1542              		.align	1
ARM GAS  /var/folders/4j/h0s8jllx34d4kvb_9k9v0kmh0000gn/T//cctne3Ma.s 			page 45


 1543              		.global	main
 1544              		.syntax unified
 1545              		.thumb
 1546              		.thumb_func
 1548              	main:
 1549              	.LFB65:
 125:Core/Src/main.c ****   /* USER CODE BEGIN 1 */
 1550              		.loc 1 125 1 view -0
 1551              		.cfi_startproc
 1552              		@ args = 0, pretend = 0, frame = 0
 1553              		@ frame_needed = 0, uses_anonymous_args = 0
 1554 0000 10B5     		push	{r4, lr}
 1555              	.LCFI20:
 1556              		.cfi_def_cfa_offset 8
 1557              		.cfi_offset 4, -8
 1558              		.cfi_offset 14, -4
 133:Core/Src/main.c **** 
 1559              		.loc 1 133 3 view .LVU420
 1560 0002 FFF7FEFF 		bl	HAL_Init
 1561              	.LVL108:
 140:Core/Src/main.c **** 
 1562              		.loc 1 140 3 view .LVU421
 1563 0006 FFF7FEFF 		bl	SystemClock_Config
 1564              	.LVL109:
 147:Core/Src/main.c ****   MX_USART2_UART_Init();
 1565              		.loc 1 147 3 view .LVU422
 1566 000a FFF7FEFF 		bl	MX_GPIO_Init
 1567              	.LVL110:
 148:Core/Src/main.c ****   MX_TIM1_Init();
 1568              		.loc 1 148 3 view .LVU423
 1569 000e FFF7FEFF 		bl	MX_USART2_UART_Init
 1570              	.LVL111:
 149:Core/Src/main.c ****   /* USER CODE BEGIN 2 */
 1571              		.loc 1 149 3 view .LVU424
 1572 0012 FFF7FEFF 		bl	MX_TIM1_Init
 1573              	.LVL112:
 157:Core/Src/main.c ****   uint32_t lastChange = HAL_GetTick();
 1574              		.loc 1 157 3 view .LVU425
 1575 0016 FFF7FEFF 		bl	generateNewNumber
 1576              	.LVL113:
 158:Core/Src/main.c ****   while (1)
 1577              		.loc 1 158 3 view .LVU426
 158:Core/Src/main.c ****   while (1)
 1578              		.loc 1 158 25 is_stmt 0 view .LVU427
 1579 001a FFF7FEFF 		bl	HAL_GetTick
 1580              	.LVL114:
 1581 001e 0446     		mov	r4, r0
 1582              	.LVL115:
 158:Core/Src/main.c ****   while (1)
 1583              		.loc 1 158 25 view .LVU428
 1584 0020 1BE0     		b	.L107
 1585              	.LVL116:
 1586              	.L108:
 173:Core/Src/main.c ****         if (HAL_GetTick() - lastChange > drawingDelay)
 1587              		.loc 1 173 9 is_stmt 1 view .LVU429
 1588 0022 154B     		ldr	r3, .L112
 1589 0024 93F90000 		ldrsb	r0, [r3]
ARM GAS  /var/folders/4j/h0s8jllx34d4kvb_9k9v0kmh0000gn/T//cctne3Ma.s 			page 46


 1590 0028 FFF7FEFF 		bl	drawNumbers
 1591              	.LVL117:
 174:Core/Src/main.c ****         {
 1592              		.loc 1 174 9 view .LVU430
 174:Core/Src/main.c ****         {
 1593              		.loc 1 174 13 is_stmt 0 view .LVU431
 1594 002c FFF7FEFF 		bl	HAL_GetTick
 1595              	.LVL118:
 174:Core/Src/main.c ****         {
 1596              		.loc 1 174 27 view .LVU432
 1597 0030 031B     		subs	r3, r0, r4
 174:Core/Src/main.c ****         {
 1598              		.loc 1 174 40 view .LVU433
 1599 0032 124A     		ldr	r2, .L112+4
 1600 0034 1288     		ldrh	r2, [r2]
 174:Core/Src/main.c ****         {
 1601              		.loc 1 174 12 view .LVU434
 1602 0036 9342     		cmp	r3, r2
 1603 0038 0FD9     		bls	.L107
 176:Core/Src/main.c ****           if (currPos > numberSize) currPos = -4;
 1604              		.loc 1 176 11 is_stmt 1 view .LVU435
 176:Core/Src/main.c ****           if (currPos > numberSize) currPos = -4;
 1605              		.loc 1 176 18 is_stmt 0 view .LVU436
 1606 003a 0F4A     		ldr	r2, .L112
 1607 003c 1378     		ldrb	r3, [r2]	@ zero_extendqisi2
 1608 003e 0133     		adds	r3, r3, #1
 1609 0040 5BB2     		sxtb	r3, r3
 1610 0042 1370     		strb	r3, [r2]
 177:Core/Src/main.c ****           lastChange = HAL_GetTick();
 1611              		.loc 1 177 11 is_stmt 1 view .LVU437
 177:Core/Src/main.c ****           lastChange = HAL_GetTick();
 1612              		.loc 1 177 23 is_stmt 0 view .LVU438
 1613 0044 0E4A     		ldr	r2, .L112+8
 1614 0046 92F90020 		ldrsb	r2, [r2]
 177:Core/Src/main.c ****           lastChange = HAL_GetTick();
 1615              		.loc 1 177 14 view .LVU439
 1616 004a 9342     		cmp	r3, r2
 1617 004c 02DD     		ble	.L110
 177:Core/Src/main.c ****           lastChange = HAL_GetTick();
 1618              		.loc 1 177 37 is_stmt 1 discriminator 1 view .LVU440
 177:Core/Src/main.c ****           lastChange = HAL_GetTick();
 1619              		.loc 1 177 45 is_stmt 0 discriminator 1 view .LVU441
 1620 004e 0A4B     		ldr	r3, .L112
 1621 0050 FC22     		movs	r2, #252
 1622 0052 1A70     		strb	r2, [r3]
 1623              	.L110:
 178:Core/Src/main.c ****         }
 1624              		.loc 1 178 11 is_stmt 1 view .LVU442
 178:Core/Src/main.c ****         }
 1625              		.loc 1 178 24 is_stmt 0 view .LVU443
 1626 0054 FFF7FEFF 		bl	HAL_GetTick
 1627              	.LVL119:
 1628 0058 0446     		mov	r4, r0
 1629              	.LVL120:
 1630              	.L107:
 159:Core/Src/main.c ****   {
 1631              		.loc 1 159 3 is_stmt 1 view .LVU444
ARM GAS  /var/folders/4j/h0s8jllx34d4kvb_9k9v0kmh0000gn/T//cctne3Ma.s 			page 47


 164:Core/Src/main.c **** 
 1632              		.loc 1 164 5 view .LVU445
 1633 005a FFF7FEFF 		bl	animateLeds
 1634              	.LVL121:
 166:Core/Src/main.c ****     {
 1635              		.loc 1 166 5 view .LVU446
 166:Core/Src/main.c ****     {
 1636              		.loc 1 166 22 is_stmt 0 view .LVU447
 1637 005e 094B     		ldr	r3, .L112+12
 1638 0060 1B78     		ldrb	r3, [r3]	@ zero_extendqisi2
 166:Core/Src/main.c ****     {
 1639              		.loc 1 166 8 view .LVU448
 1640 0062 002B     		cmp	r3, #0
 1641 0064 F9D1     		bne	.L107
 168:Core/Src/main.c ****       {
 1642              		.loc 1 168 7 is_stmt 1 view .LVU449
 168:Core/Src/main.c ****       {
 1643              		.loc 1 168 11 is_stmt 0 view .LVU450
 1644 0066 084B     		ldr	r3, .L112+16
 1645 0068 1B78     		ldrb	r3, [r3]	@ zero_extendqisi2
 168:Core/Src/main.c ****       {
 1646              		.loc 1 168 10 view .LVU451
 1647 006a 002B     		cmp	r3, #0
 1648 006c D9D0     		beq	.L108
 170:Core/Src/main.c ****       } else
 1649              		.loc 1 170 9 is_stmt 1 view .LVU452
 1650 006e 044B     		ldr	r3, .L112+8
 1651 0070 1878     		ldrb	r0, [r3]	@ zero_extendqisi2
 1652 0072 FFF7FEFF 		bl	drawNumber
 1653              	.LVL122:
 1654 0076 F0E7     		b	.L107
 1655              	.L113:
 1656              		.align	2
 1657              	.L112:
 1658 0078 00000000 		.word	.LANCHOR7
 1659 007c 00000000 		.word	.LANCHOR11
 1660 0080 00000000 		.word	.LANCHOR0
 1661 0084 00000000 		.word	.LANCHOR6
 1662 0088 00000000 		.word	.LANCHOR10
 1663              		.cfi_endproc
 1664              	.LFE65:
 1666              		.global	animationStart
 1667              		.global	prev
 1668              		.global	seed
 1669              		.global	lastBtnPress
 1670              		.global	lastStartPress
 1671              		.global	currPos
 1672              		.global	drawingDelay
 1673              		.global	isGenerating
 1674              		.global	isNumberSizeChoice
 1675              		.global	numberSize
 1676              		.global	NUMBER
 1677              		.global	SEGMENTS
 1678              		.global	NUMBERS
 1679              		.global	huart2
 1680              		.global	htim1
 1681              		.section	.bss.NUMBER,"aw",%nobits
ARM GAS  /var/folders/4j/h0s8jllx34d4kvb_9k9v0kmh0000gn/T//cctne3Ma.s 			page 48


 1682              		.align	2
 1683              		.set	.LANCHOR1,. + 0
 1686              	NUMBER:
 1687 0000 00000000 		.space	15
 1687      00000000 
 1687      00000000 
 1687      000000
 1688              		.section	.bss.animationStart,"aw",%nobits
 1689              		.align	2
 1690              		.set	.LANCHOR12,. + 0
 1693              	animationStart:
 1694 0000 00000000 		.space	4
 1695              		.section	.bss.htim1,"aw",%nobits
 1696              		.align	2
 1697              		.set	.LANCHOR14,. + 0
 1700              	htim1:
 1701 0000 00000000 		.space	72
 1701      00000000 
 1701      00000000 
 1701      00000000 
 1701      00000000 
 1702              		.section	.bss.huart2,"aw",%nobits
 1703              		.align	2
 1704              		.set	.LANCHOR13,. + 0
 1707              	huart2:
 1708 0000 00000000 		.space	68
 1708      00000000 
 1708      00000000 
 1708      00000000 
 1708      00000000 
 1709              		.section	.bss.isGenerating,"aw",%nobits
 1710              		.set	.LANCHOR6,. + 0
 1713              	isGenerating:
 1714 0000 00       		.space	1
 1715              		.section	.bss.isNumberSizeChoice,"aw",%nobits
 1716              		.set	.LANCHOR10,. + 0
 1719              	isNumberSizeChoice:
 1720 0000 00       		.space	1
 1721              		.section	.bss.lastBtnPress,"aw",%nobits
 1722              		.align	2
 1723              		.set	.LANCHOR8,. + 0
 1726              	lastBtnPress:
 1727 0000 00000000 		.space	4
 1728              		.section	.bss.lastStartPress,"aw",%nobits
 1729              		.align	2
 1730              		.set	.LANCHOR9,. + 0
 1733              	lastStartPress:
 1734 0000 00000000 		.space	4
 1735              		.section	.data.currPos,"aw"
 1736              		.set	.LANCHOR7,. + 0
 1739              	currPos:
 1740 0000 FC       		.byte	-4
 1741              		.section	.data.drawingDelay,"aw"
 1742              		.align	1
 1743              		.set	.LANCHOR11,. + 0
 1746              	drawingDelay:
 1747 0000 2C01     		.short	300
ARM GAS  /var/folders/4j/h0s8jllx34d4kvb_9k9v0kmh0000gn/T//cctne3Ma.s 			page 49


 1748              		.section	.data.numberSize,"aw"
 1749              		.set	.LANCHOR0,. + 0
 1752              	numberSize:
 1753 0000 0A       		.byte	10
 1754              		.section	.data.prev,"aw"
 1755              		.align	2
 1756              		.set	.LANCHOR4,. + 0
 1759              	prev:
 1760 0000 01000000 		.word	1
 1761              		.section	.data.seed,"aw"
 1762              		.align	2
 1763              		.set	.LANCHOR5,. + 0
 1766              	seed:
 1767 0000 07000000 		.word	7
 1768              		.section	.rodata.NUMBERS,"a"
 1769              		.align	2
 1770              		.set	.LANCHOR3,. + 0
 1773              	NUMBERS:
 1774 0000 039F250D 		.ascii	"\003\237%\015\231IA\037\001\011"
 1774      9949411F 
 1774      0109
 1775              		.section	.rodata.SEGMENTS,"a"
 1776              		.align	2
 1777              		.set	.LANCHOR2,. + 0
 1780              	SEGMENTS:
 1781 0000 8F4F2010 		.ascii	"\217O \020"
 1782              		.text
 1783              	.Letext0:
 1784              		.file 3 "/Applications/ARM/arm-none-eabi/include/machine/_default_types.h"
 1785              		.file 4 "/Applications/ARM/arm-none-eabi/include/sys/_stdint.h"
 1786              		.file 5 "Drivers/CMSIS/Device/ST/STM32F1xx/Include/stm32f103xb.h"
 1787              		.file 6 "Drivers/STM32F1xx_HAL_Driver/Inc/stm32f1xx_hal_def.h"
 1788              		.file 7 "Drivers/STM32F1xx_HAL_Driver/Inc/stm32f1xx_hal_rcc.h"
 1789              		.file 8 "Drivers/STM32F1xx_HAL_Driver/Inc/stm32f1xx_hal_rcc_ex.h"
 1790              		.file 9 "Drivers/STM32F1xx_HAL_Driver/Inc/stm32f1xx_hal_gpio.h"
 1791              		.file 10 "Drivers/STM32F1xx_HAL_Driver/Inc/stm32f1xx_hal_dma.h"
 1792              		.file 11 "Drivers/STM32F1xx_HAL_Driver/Inc/stm32f1xx_hal_tim.h"
 1793              		.file 12 "Drivers/STM32F1xx_HAL_Driver/Inc/stm32f1xx_hal_uart.h"
 1794              		.file 13 "Drivers/STM32F1xx_HAL_Driver/Inc/stm32f1xx_hal.h"
 1795              		.file 14 "Drivers/STM32F1xx_HAL_Driver/Inc/stm32f1xx_hal_cortex.h"
 1796              		.file 15 "Drivers/STM32F1xx_HAL_Driver/Inc/stm32f1xx_hal_tim_ex.h"
 1797              		.file 16 "<built-in>"
ARM GAS  /var/folders/4j/h0s8jllx34d4kvb_9k9v0kmh0000gn/T//cctne3Ma.s 			page 50

